; Listing generated by Microsoft (R) Optimizing Compiler Version 19.28.29334.0 

include listing.inc

INCLUDELIB LIBCMT
INCLUDELIB OLDNAMES

CONST	SEGMENT
$SG81926 DB	'unknown code', 00H
$SG81740 DB	00H
	ORG $+2
$SG81936 DB	'outofmem', 00H
	ORG $+3
$SG82160 DB	'#?RGBE', 00H
	ORG $+1
$SG82168 DB	'-Y ', 00H
$SG81990 DB	'not GIF', 00H
$SG82027 DB	'#?RADIANCE', 0aH, 00H
$SG82171 DB	'+X ', 00H
$SG82029 DB	'#?RGBE', 0aH, 00H
$SG82159 DB	'#?RADIANCE', 00H
	ORG $+1
$SG82228 DB	'-Y ', 00H
$SG82161 DB	'not HDR', 00H
$SG82164 DB	'FORMAT=32-bit_rle_rgbe', 00H
	ORG $+1
$SG82166 DB	'unsupported format', 00H
	ORG $+1
$SG82230 DB	'+X ', 00H
$SG82169 DB	'unsupported data layout', 00H
$SG82172 DB	'unsupported data layout', 00H
$SG82174 DB	'too large', 00H
	ORG $+2
$SG82445 DB	'rb', 00H
	ORG $+1
$SG82176 DB	'too large', 00H
	ORG $+2
$SG82462 DB	'rb', 00H
	ORG $+1
$SG82180 DB	'too large', 00H
	ORG $+2
$SG82511 DB	'r', 00H
	ORG $+2
$SG82182 DB	'outofmem', 00H
	ORG $+3
$SG82514 DB	0aH, 00H
	ORG $+2
$SG82189 DB	'invalid decoded scanline length', 00H
$SG82192 DB	'outofmem', 00H
	ORG $+3
$SG83069 DB	'usemtl', 00H
	ORG $+1
$SG83140 DB	0aH, 00H
	ORG $+2
$SG82197 DB	'corrupt', 00H
$SG82200 DB	'corrupt', 00H
$SG82225 DB	'FORMAT=32-bit_rle_rgbe', 00H
	ORG $+1
$SG82294 DB	'S', 080H, 0f6H, '4', 00H
	ORG $+3
$SG82337 DB	'too large', 00H
	ORG $+2
$SG83072 DB	'mtllib', 00H
	ORG $+1
$SG83150 DB	0aH, 00H
	ORG $+2
$SG82339 DB	'too large', 00H
	ORG $+2
$SG83119 DB	'newmtl', 00H
	ORG $+1
$SG83176 DB	0aH, 00H
	ORG $+2
$SG82342 DB	'too large', 00H
	ORG $+2
$SG83188 DB	0aH, 00H
	ORG $+2
$SG82344 DB	'outofmem', 00H
	ORG $+3
$SG83159 DB	'illum', 00H
	ORG $+2
$SG83284 DB	'r', 00H
	ORG $+2
$SG82346 DB	'bad PNM', 00H
$SG82382 DB	'integer parse overflow', 00H
	ORG $+1
$SG82403 DB	'invalid width', 00H
	ORG $+2
$SG82405 DB	'invalid width', 00H
	ORG $+2
$SG82408 DB	'max value > 65535', 00H
	ORG $+2
$SG83300 DB	0aH, 00H
	ORG $+2
$SG82430 DB	'unknown image type', 00H
	ORG $+1
$SG83324 DB	0aH, 00H
	ORG $+2
$SG82447 DB	'can''t fopen', 00H
$SG84561 DB	'far', 00H
$SG82464 DB	'can''t fopen', 00H
$SG84597 DB	'X', 00H
	ORG $+2
$SG82513 DB	'Could not open shader source file.', 00H
	ORG $+1
$SG84599 DB	'Y', 00H
	ORG $+2
$SG83062 DB	'Unsupported Obj Command.', 00H
	ORG $+3
$SG84565 DB	'model', 00H
	ORG $+2
$SG84601 DB	'Z', 00H
	ORG $+2
$SG83063 DB	'Assertion failed at line %d: %s', 0aH, 00H
	ORG $+3
$SG84566 DB	'model', 00H
	ORG $+2
$SG84823 DB	'1.90.4', 00H
	ORG $+1
$SG84840 DB	'tex', 00H
$SG83139 DB	'Unsupported Mtl Command.', 00H
	ORG $+3
$SG84846 DB	'Monkey', 00H
	ORG $+1
$SG84848 DB	'Cow', 00H
$SG83149 DB	'Unsupported Mtl Command.', 00H
	ORG $+3
$SG83163 DB	'map_', 00H
	ORG $+3
$SG84847 DB	'Dragon', 00H
	ORG $+1
$SG84856 DB	'C1', 00H
	ORG $+1
$SG83175 DB	'Unsupported Mtl Command.', 00H
	ORG $+3
$SG83182 DB	'Bump', 00H
	ORG $+3
$SG84851 DB	'Phong', 00H
	ORG $+2
$SG84857 DB	'G1', 00H
	ORG $+1
$SG83187 DB	'Unsupported Mtl Command.', 00H
	ORG $+3
$SG83191 DB	'bump', 00H
	ORG $+3
$SG83194 DB	'disp', 00H
	ORG $+3
$SG84862 DB	'Scene', 00H
	ORG $+2
$SG84867 DB	'FOV', 00H
$SG83209 DB	'..\data\models\', 00H
$SG83211 DB	'Shader file path is too long.', 00H
	ORG $+2
$SG83212 DB	'Assertion failed at line %d: %s', 0aH, 00H
	ORG $+3
$SG84873 DB	'Shader', 00H
	ORG $+1
$SG84888 DB	'Pos', 00H
$SG83280 DB	'..\data\shaders\', 00H
	ORG $+3
$SG84883 DB	'Model', 00H
	ORG $+2
$SG84885 DB	'Models', 00H
	ORG $+1
$SG84889 DB	'Rot', 00H
$SG83282 DB	'Shader file path is too long.', 00H
	ORG $+2
$SG83283 DB	'Assertion failed at line %d: %s', 0aH, 00H
	ORG $+3
$SG84890 DB	'Scale', 00H
	ORG $+2
$SG84894 DB	'Curves', 00H
	ORG $+1
$SG84896 DB	'dt', 00H
	ORG $+1
$SG83286 DB	'Could not open shader source file.', 00H
	ORG $+1
$SG84913 DB	0aH, 00H
	ORG $+2
$SG83287 DB	'Assertion failed at line %d: %s', 0aH, 00H
	ORG $+3
$SG84891 DB	'Color', 00H
	ORG $+2
$SG84902 DB	'Pos %d', 00H
	ORG $+1
$SG76758 DB	'rb', 00H
	ORG $+1
$SG83299 DB	'ERROR::SHADER::COMPILATION: %s', 00H
	ORG $+1
$SG83323 DB	'ERROR::SHADER::LINKING_FAILED: %s', 00H
	ORG $+2
$SG76795 DB	'rb', 00H
	ORG $+1
$SG83468 DB	'Unsupported Texture format.', 00H
$SG76896 DB	'rb', 00H
	ORG $+1
$SG83469 DB	'Assertion failed at line %d: %s', 0aH, 00H
	ORG $+3
$SG84897 DB	'Debug', 00H
	ORG $+2
$SG76917 DB	'rb', 00H
	ORG $+1
$SG84118 DB	'Failed to make framebuffer.', 00H
$SG77099 DB	'0', 00H, 00H, 00H
$SG84119 DB	'Assertion failed at line %d: %s', 0aH, 00H
	ORG $+3
$SG77191 DB	'0', 00H, 00H, 00H
$SG84442 DB	'mat.ambient', 00H
	ORG $+4
$SG84443 DB	'mat.diffuse', 00H
	ORG $+4
$SG84444 DB	'mat.specular', 00H
	ORG $+3
$SG84445 DB	'mat.shininess', 00H
	ORG $+2
$SG84446 DB	'mat.diffuse_tex', 00H
$SG84447 DB	'mat.specular_tex', 00H
	ORG $+7
$SG84459 DB	'point_light_count', 00H
	ORG $+6
$SG84460 DB	'point_lights[%u].pos', 00H
	ORG $+3
$SG84461 DB	'point_lights[%u].constant', 00H
	ORG $+6
$SG84462 DB	'point_lights[%u].linear', 00H
$SG84463 DB	'point_lights[%u].quadratic', 00H
	ORG $+1
$SG84556 DB	'proj', 00H
	ORG $+3
$SG84557 DB	'view', 00H
	ORG $+3
$SG84558 DB	'proj', 00H
	ORG $+3
$SG84559 DB	'view', 00H
	ORG $+3
$SG84560 DB	'near', 00H
	ORG $+3
$SG84596 DB	'%.3f', 00H
	ORG $+3
$SG84598 DB	'%.3f', 00H
	ORG $+3
$SG84600 DB	'%.3f', 00H
	ORG $+7
$SG76618 DB	'unknown image type', 00H
	ORG $+5
$SG84821 DB	'Model Transforms', 00H
	ORG $+7
$SG84824 DB	'#version 330', 00H
	ORG $+3
$SG84825 DB	'framebuffer_frag.glsl', 00H
	ORG $+2
$SG84826 DB	'framebuffer_vert.glsl', 00H
	ORG $+2
$SG84827 DB	'frag.glsl', 00H
	ORG $+6
$SG84828 DB	'vert.glsl', 00H
	ORG $+6
$SG76636 DB	'outofmem', 00H
	ORG $+7
$SG84829 DB	'flat_frag.glsl', 00H
	ORG $+1
$SG84830 DB	'flat_geo.glsl', 00H
	ORG $+2
$SG84831 DB	'flat_vert.glsl', 00H
	ORG $+1
$SG84832 DB	'gouraud_frag.glsl', 00H
	ORG $+6
$SG84833 DB	'gouraud_vert.glsl', 00H
	ORG $+6
$SG84834 DB	'phong_frag.glsl', 00H
$SG84835 DB	'phong_vert.glsl', 00H
$SG84836 DB	'depth_frag.glsl', 00H
$SG84837 DB	'depth_vert.glsl', 00H
$SG84838 DB	'linear_depth_frag.glsl', 00H
	ORG $+1
$SG84839 DB	'linear_depth_vert.glsl', 00H
	ORG $+1
$SG84841 DB	'backpack\backpack.obj', 00H
	ORG $+2
$SG84842 DB	'smooth_monkey\monkey.obj', 00H
	ORG $+7
$SG84843 DB	'dragon\dragon.obj', 00H
	ORG $+6
$SG84844 DB	'cow\cow.obj', 00H
	ORG $+4
$SG84845 DB	'Backpack', 00H
	ORG $+7
$SG76655 DB	'outofmem', 00H
	ORG $+3
$SG84849 DB	'None', 00H
	ORG $+7
$SG84850 DB	'Gouraud', 00H
$SG84852 DB	'Flat', 00H
	ORG $+3
$SG84853 DB	'Z Buffer', 00H
	ORG $+7
$SG84854 DB	'Z'' Buffer', 00H
	ORG $+2
$SG84855 DB	'None', 00H
	ORG $+7
$SG84858 DB	'De Castelgau', 00H
	ORG $+3
$SG84859 DB	'Matrix Form', 00H
	ORG $+4
$SG84860 DB	'InvisibleWindow', 00H
$SG84861 DB	'InvisibleWindowSockSpace', 00H
	ORG $+7
$SG84863 DB	'Properties', 00H
	ORG $+5
$SG84865 DB	'Perspective', 00H
$SG84866 DB	'%.3f', 00H
	ORG $+3
$SG84868 DB	'%.3f', 00H
	ORG $+7
$SG84869 DB	'Near Plane', 00H
	ORG $+1
$SG84870 DB	'%.3f', 00H
	ORG $+7
$SG84871 DB	'Far Plane', 00H
	ORG $+6
$SG84875 DB	'Add Light', 00H
	ORG $+6
$SG84877 DB	'Light Pos %u', 00H
	ORG $+3
$SG84879 DB	'Shaders', 00H
$SG84892 DB	'Use Textures', 00H
	ORG $+3
$SG84895 DB	'%.3f', 00H
	ORG $+3
$SG84898 DB	'%.3f', 00H
	ORG $+3
$SG84899 DB	'Debug t', 00H
$SG76707 DB	'W', 00H, ':', 00H, '\', 00H, 'O', 00H, 'p', 00H, 'e', 00H
	DB	'n', 00H, 'G', 00H, 'L', 00H, '_', 00H, 'V', 00H, 'i', 00H, 'e'
	DB	00H, 'w', 00H, 'e', 00H, 'r', 00H, '\', 00H, 'l', 00H, 'i', 00H
	DB	'b', 00H, '\', 00H, 's', 00H, 't', 00H, 'b', 00H, '_', 00H, 'i'
	DB	00H, 'm', 00H, 'a', 00H, 'g', 00H, 'e', 00H, '.', 00H, 'h', 00H
	DB	00H, 00H
	ORG $+6
$SG84912 DB	'FPS: %f', 00H
$SG76708 DB	'r', 00H, 'i', 00H, '.', 00H, 'b', 00H, 'i', 00H, 't', 00H
	DB	's', 00H, '_', 00H, 'p', 00H, 'e', 00H, 'r', 00H, '_', 00H, 'c'
	DB	00H, 'h', 00H, 'a', 00H, 'n', 00H, 'n', 00H, 'e', 00H, 'l', 00H
	DB	' ', 00H, '=', 00H, '=', 00H, ' ', 00H, '8', 00H, ' ', 00H, '|'
	DB	00H, '|', 00H, ' ', 00H, 'r', 00H, 'i', 00H, '.', 00H, 'b', 00H
	DB	'i', 00H, 't', 00H, 's', 00H, '_', 00H, 'p', 00H, 'e', 00H, 'r'
	DB	00H, '_', 00H, 'c', 00H, 'h', 00H, 'a', 00H, 'n', 00H, 'n', 00H
	DB	'e', 00H, 'l', 00H, ' ', 00H, '=', 00H, '=', 00H, ' ', 00H, '1'
	DB	00H, '6', 00H, 00H, 00H
	ORG $+4
$SG84908 DB	'Add Point', 00H
	ORG $+6
$SG76727 DB	'W', 00H, ':', 00H, '\', 00H, 'O', 00H, 'p', 00H, 'e', 00H
	DB	'n', 00H, 'G', 00H, 'L', 00H, '_', 00H, 'V', 00H, 'i', 00H, 'e'
	DB	00H, 'w', 00H, 'e', 00H, 'r', 00H, '\', 00H, 'l', 00H, 'i', 00H
	DB	'b', 00H, '\', 00H, 's', 00H, 't', 00H, 'b', 00H, '_', 00H, 'i'
	DB	00H, 'm', 00H, 'a', 00H, 'g', 00H, 'e', 00H, '.', 00H, 'h', 00H
	DB	00H, 00H
	ORG $+6
$SG76760 DB	'can''t fopen', 00H
$SG79005 DB	'bad H', 00H
	ORG $+6
$SG76728 DB	'r', 00H, 'i', 00H, '.', 00H, 'b', 00H, 'i', 00H, 't', 00H
	DB	's', 00H, '_', 00H, 'p', 00H, 'e', 00H, 'r', 00H, '_', 00H, 'c'
	DB	00H, 'h', 00H, 'a', 00H, 'n', 00H, 'n', 00H, 'e', 00H, 'l', 00H
	DB	' ', 00H, '=', 00H, '=', 00H, ' ', 00H, '8', 00H, ' ', 00H, '|'
	DB	00H, '|', 00H, ' ', 00H, 'r', 00H, 'i', 00H, '.', 00H, 'b', 00H
	DB	'i', 00H, 't', 00H, 's', 00H, '_', 00H, 'p', 00H, 'e', 00H, 'r'
	DB	00H, '_', 00H, 'c', 00H, 'h', 00H, 'a', 00H, 'n', 00H, 'n', 00H
	DB	'e', 00H, 'l', 00H, ' ', 00H, '=', 00H, '=', 00H, ' ', 00H, '1'
	DB	00H, '6', 00H, 00H, 00H
	ORG $+4
$SG76797 DB	'can''t fopen', 00H
	ORG $+4
$SG76865 DB	'unknown image type', 00H
	ORG $+5
$SG76898 DB	'can''t fopen', 00H
$SG79008 DB	'bad V', 00H
	ORG $+6
$SG77081 DB	'W', 00H, ':', 00H, '\', 00H, 'O', 00H, 'p', 00H, 'e', 00H
	DB	'n', 00H, 'G', 00H, 'L', 00H, '_', 00H, 'V', 00H, 'i', 00H, 'e'
	DB	00H, 'w', 00H, 'e', 00H, 'r', 00H, '\', 00H, 'l', 00H, 'i', 00H
	DB	'b', 00H, '\', 00H, 's', 00H, 't', 00H, 'b', 00H, '_', 00H, 'i'
	DB	00H, 'm', 00H, 'a', 00H, 'g', 00H, 'e', 00H, '.', 00H, 'h', 00H
	DB	00H, 00H
	ORG $+6
$SG77082 DB	'r', 00H, 'e', 00H, 'q', 00H, '_', 00H, 'c', 00H, 'o', 00H
	DB	'm', 00H, 'p', 00H, ' ', 00H, '>', 00H, '=', 00H, ' ', 00H, '1'
	DB	00H, ' ', 00H, '&', 00H, '&', 00H, ' ', 00H, 'r', 00H, 'e', 00H
	DB	'q', 00H, '_', 00H, 'c', 00H, 'o', 00H, 'm', 00H, 'p', 00H, ' '
	DB	00H, '<', 00H, '=', 00H, ' ', 00H, '4', 00H, 00H, 00H
	ORG $+2
$SG77084 DB	'outofmem', 00H
	ORG $+7
$SG77100 DB	'unsupported', 00H
$SG79010 DB	'bad TQ', 00H
	ORG $+5
$SG77098 DB	'W', 00H, ':', 00H, '\', 00H, 'O', 00H, 'p', 00H, 'e', 00H
	DB	'n', 00H, 'G', 00H, 'L', 00H, '_', 00H, 'V', 00H, 'i', 00H, 'e'
	DB	00H, 'w', 00H, 'e', 00H, 'r', 00H, '\', 00H, 'l', 00H, 'i', 00H
	DB	'b', 00H, '\', 00H, 's', 00H, 't', 00H, 'b', 00H, '_', 00H, 'i'
	DB	00H, 'm', 00H, 'a', 00H, 'g', 00H, 'e', 00H, '.', 00H, 'h', 00H
	DB	00H, 00H
	ORG $+6
$SG77174 DB	'r', 00H, 'e', 00H, 'q', 00H, '_', 00H, 'c', 00H, 'o', 00H
	DB	'm', 00H, 'p', 00H, ' ', 00H, '>', 00H, '=', 00H, ' ', 00H, '1'
	DB	00H, ' ', 00H, '&', 00H, '&', 00H, ' ', 00H, 'r', 00H, 'e', 00H
	DB	'q', 00H, '_', 00H, 'c', 00H, 'o', 00H, 'm', 00H, 'p', 00H, ' '
	DB	00H, '<', 00H, '=', 00H, ' ', 00H, '4', 00H, 00H, 00H
	ORG $+2
$SG77420 DB	'bad code lengths', 00H
	ORG $+7
$SG77173 DB	'W', 00H, ':', 00H, '\', 00H, 'O', 00H, 'p', 00H, 'e', 00H
	DB	'n', 00H, 'G', 00H, 'L', 00H, '_', 00H, 'V', 00H, 'i', 00H, 'e'
	DB	00H, 'w', 00H, 'e', 00H, 'r', 00H, '\', 00H, 'l', 00H, 'i', 00H
	DB	'b', 00H, '\', 00H, 's', 00H, 't', 00H, 'b', 00H, '_', 00H, 'i'
	DB	00H, 'm', 00H, 'a', 00H, 'g', 00H, 'e', 00H, '.', 00H, 'h', 00H
	DB	00H, 00H
	ORG $+6
$SG77176 DB	'outofmem', 00H
	ORG $+7
$SG77192 DB	'unsupported', 00H
$SG79017 DB	'bad H', 00H
	ORG $+6
$SG77190 DB	'W', 00H, ':', 00H, '\', 00H, 'O', 00H, 'p', 00H, 'e', 00H
	DB	'n', 00H, 'G', 00H, 'L', 00H, '_', 00H, 'V', 00H, 'i', 00H, 'e'
	DB	00H, 'w', 00H, 'e', 00H, 'r', 00H, '\', 00H, 'l', 00H, 'i', 00H
	DB	'b', 00H, '\', 00H, 's', 00H, 't', 00H, 'b', 00H, '_', 00H, 'i'
	DB	00H, 'm', 00H, 'a', 00H, 'g', 00H, 'e', 00H, '.', 00H, 'h', 00H
	DB	00H, 00H
	ORG $+6
$SG77240 DB	'outofmem', 00H
	ORG $+7
$SG77272 DB	'outofmem', 00H
	ORG $+7
$SG77417 DB	'bad size list', 00H
	ORG $+2
$SG77529 DB	'bad huffman code', 00H
	ORG $+7
?stbi__bmask@@3QBIB DD 00H				; stbi__bmask
	DD	01H
	DD	03H
	DD	07H
	DD	0fH
	DD	01fH
	DD	03fH
	DD	07fH
	DD	0ffH
	DD	01ffH
	DD	03ffH
	DD	07ffH
	DD	0fffH
	DD	01fffH
	DD	03fffH
	DD	07fffH
	DD	0ffffH
$SG79019 DB	'bad V', 00H
	ORG $+6
$SG77477 DB	'W', 00H, ':', 00H, '\', 00H, 'O', 00H, 'p', 00H, 'e', 00H
	DB	'n', 00H, 'G', 00H, 'L', 00H, '_', 00H, 'V', 00H, 'i', 00H, 'e'
	DB	00H, 'w', 00H, 'e', 00H, 'r', 00H, '\', 00H, 'l', 00H, 'i', 00H
	DB	'b', 00H, '\', 00H, 's', 00H, 't', 00H, 'b', 00H, '_', 00H, 'i'
	DB	00H, 'm', 00H, 'a', 00H, 'g', 00H, 'e', 00H, '.', 00H, 'h', 00H
	DB	00H, 00H
	ORG $+6
$SG77533 DB	'can''t merge dc and ac', 00H
	ORG $+2
$SG77478 DB	'(', 00H, '(', 00H, '(', 00H, 'j', 00H, '-', 00H, '>', 00H
	DB	'c', 00H, 'o', 00H, 'd', 00H, 'e', 00H, '_', 00H, 'b', 00H, 'u'
	DB	00H, 'f', 00H, 'f', 00H, 'e', 00H, 'r', 00H, ')', 00H, ' ', 00H
	DB	'>', 00H, '>', 00H, ' ', 00H, '(', 00H, '3', 00H, '2', 00H, ' '
	DB	00H, '-', 00H, ' ', 00H, 'h', 00H, '-', 00H, '>', 00H, 's', 00H
	DB	'i', 00H, 'z', 00H, 'e', 00H, '[', 00H, 'c', 00H, ']', 00H, ')'
	DB	00H, ')', 00H, ' ', 00H, '&', 00H, ' ', 00H, 's', 00H, 't', 00H
	DB	'b', 00H, 'i', 00H, '_', 00H, '_', 00H, 'b', 00H, 'm', 00H, 'a'
	DB	00H, 's', 00H, 'k', 00H, '[', 00H, 'h', 00H, '-', 00H, '>', 00H
	DB	's', 00H, 'i', 00H, 'z', 00H, 'e', 00H, '[', 00H, 'c', 00H, ']'
	DB	00H, ']', 00H, ')', 00H, ' ', 00H, '=', 00H, '=', 00H, ' ', 00H
	DB	'h', 00H, '-', 00H, '>', 00H, 'c', 00H, 'o', 00H, 'd', 00H, 'e'
	DB	00H, '[', 00H, 'c', 00H, ']', 00H, 00H, 00H
$SG79035 DB	'no SOI', 00H
	ORG $+5
?stbi__jbias@@3QBHB DD 00H				; stbi__jbias
	DD	0ffffffffH
	DD	0fffffffdH
	DD	0fffffff9H
	DD	0fffffff1H
	DD	0ffffffe1H
	DD	0ffffffc1H
	DD	0ffffff81H
	DD	0ffffff01H
	DD	0fffffe01H
	DD	0fffffc01H
	DD	0fffff801H
	DD	0fffff001H
	DD	0ffffe001H
	DD	0ffffc001H
	DD	0ffff8001H
?stbi__jpeg_dezigzag@@3QBEB DB 00H			; stbi__jpeg_dezigzag
	DB	01H
	DB	08H
	DB	010H
	DB	09H
	DB	02H
	DB	03H
	DB	0aH
	DB	011H
	DB	018H
	DB	020H
	DB	019H
	DB	012H
	DB	0bH
	DB	04H
	DB	05H
	DB	0cH
	DB	013H
	DB	01aH
	DB	021H
	DB	028H
	DB	030H
	DB	029H
	DB	022H
	DB	01bH
	DB	014H
	DB	0dH
	DB	06H
	DB	07H
	DB	0eH
	DB	015H
	DB	01cH
	DB	023H
	DB	02aH
	DB	031H
	DB	038H
	DB	039H
	DB	032H
	DB	02bH
	DB	024H
	DB	01dH
	DB	016H
	DB	0fH
	DB	017H
	DB	01eH
	DB	025H
	DB	02cH
	DB	033H
	DB	03aH
	DB	03bH
	DB	034H
	DB	02dH
	DB	026H
	DB	01fH
	DB	027H
	DB	02eH
	DB	035H
	DB	03cH
	DB	03dH
	DB	036H
	DB	02fH
	DB	037H
	DB	03eH
	DB	03fH
	DB	03fH
	DB	03fH
	DB	03fH
	DB	03fH
	DB	03fH
	DB	03fH
	DB	03fH
	DB	03fH
	DB	03fH
	DB	03fH
	DB	03fH
	DB	03fH
	DB	03fH
	DB	03fH
	DB	03fH
	ORG $+1
$SG77531 DB	'bad delta', 00H
	ORG $+6
$SG77538 DB	'bad huffman code', 00H
	ORG $+7
$SG77540 DB	'bad huffman code', 00H
	ORG $+7
$SG77556 DB	'can''t merge dc and ac', 00H
	ORG $+2
$SG77562 DB	'can''t merge dc and ac', 00H
	ORG $+2
$SG77564 DB	'bad delta', 00H
	ORG $+6
$SG77566 DB	'can''t merge dc and ac', 00H
	ORG $+2
$SG77603 DB	'can''t merge dc and ac', 00H
	ORG $+2
$SG77611 DB	'bad huffman code', 00H
	ORG $+7
$SG77613 DB	'bad huffman code', 00H
	ORG $+7
$SG77626 DB	'bad huffman code', 00H
	ORG $+7
$SG77633 DB	'bad huffman code', 00H
	ORG $+7
$SG78867 DB	'expected marker', 00H
$SG78870 DB	'bad DRI len', 00H
	ORG $+4
$SG78873 DB	'bad DQT type', 00H
	ORG $+3
$SG78875 DB	'bad DQT table', 00H
	ORG $+2
$SG78879 DB	'bad DHT header', 00H
	ORG $+1
$SG78881 DB	'bad DHT header', 00H
	ORG $+1
$SG78893 DB	'bad COM len', 00H
	ORG $+4
$SG78894 DB	'bad APP len', 00H
	ORG $+4
$SG78902 DB	'unknown marker', 00H
	ORG $+1
$SG78921 DB	'bad SOS component count', 00H
$SG78923 DB	'bad SOS len', 00H
	ORG $+4
$SG78927 DB	'bad DC huff', 00H
	ORG $+4
$SG78929 DB	'bad AC huff', 00H
	ORG $+4
$SG78934 DB	'bad SOS', 00H
$SG78936 DB	'bad SOS', 00H
$SG78939 DB	'bad SOS', 00H
$SG78987 DB	'bad SOF len', 00H
	ORG $+4
$SG78989 DB	'only 8-bit', 00H
	ORG $+5
$SG78991 DB	'no header height', 00H
	ORG $+7
$SG78993 DB	'0 width', 00H
$SG78995 DB	'too large', 00H
	ORG $+6
$SG78997 DB	'too large', 00H
	ORG $+6
$SG78999 DB	'bad component count', 00H
	ORG $+4
$SG79001 DB	'bad SOF len', 00H
	ORG $+4
$SG79013 DB	'too large', 00H
	ORG $+6
$SG79021 DB	'outofmem', 00H
	ORG $+7
$SG79024 DB	'outofmem', 00H
	ORG $+3
$SG79039 DB	'no SOF', 00H
	ORG $+5
$SG79072 DB	'bad DNL len', 00H
	ORG $+4
$SG79074 DB	'bad DNL height', 00H
	ORG $+1
$SG79579 DB	'bad req_comp', 00H
	ORG $+3
$SG79585 DB	'outofmem', 00H
	ORG $+7
$SG79595 DB	'outofmem', 00H
	ORG $+7
$SG79638 DB	'outofmem', 00H
	ORG $+7
$SG79648 DB	'outofmem', 00H
	ORG $+7
$SG79671 DB	'outofmem', 00H
	ORG $+7
$SG79699 DB	'W', 00H, ':', 00H, '\', 00H, 'O', 00H, 'p', 00H, 'e', 00H
	DB	'n', 00H, 'G', 00H, 'L', 00H, '_', 00H, 'V', 00H, 'i', 00H, 'e'
	DB	00H, 'w', 00H, 'e', 00H, 'r', 00H, '\', 00H, 'l', 00H, 'i', 00H
	DB	'b', 00H, '\', 00H, 's', 00H, 't', 00H, 'b', 00H, '_', 00H, 'i'
	DB	00H, 'm', 00H, 'a', 00H, 'g', 00H, 'e', 00H, '.', 00H, 'h', 00H
	DB	00H, 00H
	ORG $+6
$SG79700 DB	'b', 00H, 'i', 00H, 't', 00H, 's', 00H, ' ', 00H, '<', 00H
	DB	'=', 00H, ' ', 00H, '1', 00H, '6', 00H, 00H, 00H
	ORG $+2
$SG79735 DB	'bad sizes', 00H
	ORG $+6
$SG79738 DB	'bad codelengths', 00H
$SG79827 DB	'output buffer limit', 00H
	ORG $+4
$SG79829 DB	'outofmem', 00H
	ORG $+7
$SG79831 DB	'outofmem', 00H
	ORG $+7
$SG79833 DB	'outofmem', 00H
	ORG $+7
$SG79861 DB	'bad huffman code', 00H
	ORG $+7
?stbi__zlength_base@@3QBHB DD 03H			; stbi__zlength_base
	DD	04H
	DD	05H
	DD	06H
	DD	07H
	DD	08H
	DD	09H
	DD	0aH
	DD	0bH
	DD	0dH
	DD	0fH
	DD	011H
	DD	013H
	DD	017H
	DD	01bH
	DD	01fH
	DD	023H
	DD	02bH
	DD	033H
	DD	03bH
	DD	043H
	DD	053H
	DD	063H
	DD	073H
	DD	083H
	DD	0a3H
	DD	0c3H
	DD	0e3H
	DD	0102H
	DD	00H
	DD	00H
	ORG $+4
?stbi__zlength_extra@@3QBHB DD 00H			; stbi__zlength_extra
	DD	00H
	DD	00H
	DD	00H
	DD	00H
	DD	00H
	DD	00H
	DD	00H
	DD	01H
	DD	01H
	DD	01H
	DD	01H
	DD	02H
	DD	02H
	DD	02H
	DD	02H
	DD	03H
	DD	03H
	DD	03H
	DD	03H
	DD	04H
	DD	04H
	DD	04H
	DD	04H
	DD	05H
	DD	05H
	DD	05H
	DD	05H
	DD	00H
	DD	00H
	DD	00H
	ORG $+4
?stbi__zdist_base@@3QBHB DD 01H				; stbi__zdist_base
	DD	02H
	DD	03H
	DD	04H
	DD	05H
	DD	07H
	DD	09H
	DD	0dH
	DD	011H
	DD	019H
	DD	021H
	DD	031H
	DD	041H
	DD	061H
	DD	081H
	DD	0c1H
	DD	0101H
	DD	0181H
	DD	0201H
	DD	0301H
	DD	0401H
	DD	0601H
	DD	0801H
	DD	0c01H
	DD	01001H
	DD	01801H
	DD	02001H
	DD	03001H
	DD	04001H
	DD	06001H
	DD	00H
	DD	00H
?stbi__zdist_extra@@3QBHB DD 00H			; stbi__zdist_extra
	DD	00H
	DD	00H
	DD	00H
	DD	01H
	DD	01H
	DD	02H
	DD	02H
	DD	03H
	DD	03H
	DD	04H
	DD	04H
	DD	05H
	DD	05H
	DD	06H
	DD	06H
	DD	07H
	DD	07H
	DD	08H
	DD	08H
	DD	09H
	DD	09H
	DD	0aH
	DD	0aH
	DD	0bH
	DD	0bH
	DD	0cH
	DD	0cH
	DD	0dH
	DD	0dH
	ORG $+8
$SG79866 DB	'unexpected end', 00H
	ORG $+1
$SG79868 DB	'bad huffman code', 00H
	ORG $+7
$SG79872 DB	'bad huffman code', 00H
	ORG $+7
$SG79875 DB	'bad dist', 00H
	ORG $+7
$SG79909 DB	'bad codelengths', 00H
$SG79915 DB	'bad codelengths', 00H
$SG79920 DB	'bad codelengths', 00H
$SG79922 DB	'bad codelengths', 00H
$SG79924 DB	'bad codelengths', 00H
$SG79941 DB	'zlib corrupt', 00H
	ORG $+3
$SG79943 DB	'zlib corrupt', 00H
	ORG $+3
$SG79945 DB	'read past buffer', 00H
	ORG $+7
$SG79955 DB	'bad zlib header', 00H
$SG79957 DB	'bad zlib header', 00H
$SG79959 DB	'no preset dict', 00H
	ORG $+1
$SG79961 DB	'bad compression', 00H
$SG80153 DB	'i', 00H, 'm', 00H, 'g', 00H, '_', 00H, 'n', 00H, ' ', 00H
	DB	'=', 00H, '=', 00H, ' ', 00H, '3', 00H, 00H, 00H
	ORG $+2
?stbi__zdefault_length@@3QBEB DB 08H			; stbi__zdefault_length
	DB	08H
	DB	08H
	DB	08H
	DB	08H
	DB	08H
	DB	08H
	DB	08H
	DB	08H
	DB	08H
	DB	08H
	DB	08H
	DB	08H
	DB	08H
	DB	08H
	DB	08H
	DB	08H
	DB	08H
	DB	08H
	DB	08H
	DB	08H
	DB	08H
	DB	08H
	DB	08H
	DB	08H
	DB	08H
	DB	08H
	DB	08H
	DB	08H
	DB	08H
	DB	08H
	DB	08H
	DB	08H
	DB	08H
	DB	08H
	DB	08H
	DB	08H
	DB	08H
	DB	08H
	DB	08H
	DB	08H
	DB	08H
	DB	08H
	DB	08H
	DB	08H
	DB	08H
	DB	08H
	DB	08H
	DB	08H
	DB	08H
	DB	08H
	DB	08H
	DB	08H
	DB	08H
	DB	08H
	DB	08H
	DB	08H
	DB	08H
	DB	08H
	DB	08H
	DB	08H
	DB	08H
	DB	08H
	DB	08H
	DB	08H
	DB	08H
	DB	08H
	DB	08H
	DB	08H
	DB	08H
	DB	08H
	DB	08H
	DB	08H
	DB	08H
	DB	08H
	DB	08H
	DB	08H
	DB	08H
	DB	08H
	DB	08H
	DB	08H
	DB	08H
	DB	08H
	DB	08H
	DB	08H
	DB	08H
	DB	08H
	DB	08H
	DB	08H
	DB	08H
	DB	08H
	DB	08H
	DB	08H
	DB	08H
	DB	08H
	DB	08H
	DB	08H
	DB	08H
	DB	08H
	DB	08H
	DB	08H
	DB	08H
	DB	08H
	DB	08H
	DB	08H
	DB	08H
	DB	08H
	DB	08H
	DB	08H
	DB	08H
	DB	08H
	DB	08H
	DB	08H
	DB	08H
	DB	08H
	DB	08H
	DB	08H
	DB	08H
	DB	08H
	DB	08H
	DB	08H
	DB	08H
	DB	08H
	DB	08H
	DB	08H
	DB	08H
	DB	08H
	DB	08H
	DB	08H
	DB	08H
	DB	08H
	DB	08H
	DB	08H
	DB	08H
	DB	08H
	DB	08H
	DB	08H
	DB	08H
	DB	08H
	DB	08H
	DB	08H
	DB	08H
	DB	08H
	DB	08H
	DB	09H
	DB	09H
	DB	09H
	DB	09H
	DB	09H
	DB	09H
	DB	09H
	DB	09H
	DB	09H
	DB	09H
	DB	09H
	DB	09H
	DB	09H
	DB	09H
	DB	09H
	DB	09H
	DB	09H
	DB	09H
	DB	09H
	DB	09H
	DB	09H
	DB	09H
	DB	09H
	DB	09H
	DB	09H
	DB	09H
	DB	09H
	DB	09H
	DB	09H
	DB	09H
	DB	09H
	DB	09H
	DB	09H
	DB	09H
	DB	09H
	DB	09H
	DB	09H
	DB	09H
	DB	09H
	DB	09H
	DB	09H
	DB	09H
	DB	09H
	DB	09H
	DB	09H
	DB	09H
	DB	09H
	DB	09H
	DB	09H
	DB	09H
	DB	09H
	DB	09H
	DB	09H
	DB	09H
	DB	09H
	DB	09H
	DB	09H
	DB	09H
	DB	09H
	DB	09H
	DB	09H
	DB	09H
	DB	09H
	DB	09H
	DB	09H
	DB	09H
	DB	09H
	DB	09H
	DB	09H
	DB	09H
	DB	09H
	DB	09H
	DB	09H
	DB	09H
	DB	09H
	DB	09H
	DB	09H
	DB	09H
	DB	09H
	DB	09H
	DB	09H
	DB	09H
	DB	09H
	DB	09H
	DB	09H
	DB	09H
	DB	09H
	DB	09H
	DB	09H
	DB	09H
	DB	09H
	DB	09H
	DB	09H
	DB	09H
	DB	09H
	DB	09H
	DB	09H
	DB	09H
	DB	09H
	DB	09H
	DB	09H
	DB	09H
	DB	09H
	DB	09H
	DB	09H
	DB	09H
	DB	09H
	DB	09H
	DB	09H
	DB	09H
	DB	09H
	DB	09H
	DB	07H
	DB	07H
	DB	07H
	DB	07H
	DB	07H
	DB	07H
	DB	07H
	DB	07H
	DB	07H
	DB	07H
	DB	07H
	DB	07H
	DB	07H
	DB	07H
	DB	07H
	DB	07H
	DB	07H
	DB	07H
	DB	07H
	DB	07H
	DB	07H
	DB	07H
	DB	07H
	DB	07H
	DB	08H
	DB	08H
	DB	08H
	DB	08H
	DB	08H
	DB	08H
	DB	08H
	DB	08H
?stbi__zdefault_distance@@3QBEB DB 05H			; stbi__zdefault_distance
	DB	05H
	DB	05H
	DB	05H
	DB	05H
	DB	05H
	DB	05H
	DB	05H
	DB	05H
	DB	05H
	DB	05H
	DB	05H
	DB	05H
	DB	05H
	DB	05H
	DB	05H
	DB	05H
	DB	05H
	DB	05H
	DB	05H
	DB	05H
	DB	05H
	DB	05H
	DB	05H
	DB	05H
	DB	05H
	DB	05H
	DB	05H
	DB	05H
	DB	05H
	DB	05H
	DB	05H
$SG80098 DB	'bad png sig', 00H
	ORG $+4
?stbi__depth_scale_table@@3QBEB DB 00H			; stbi__depth_scale_table
	DB	0ffH
	DB	055H
	DB	00H
	DB	011H
	DB	00H
	DB	00H
	DB	00H
	DB	01H
	ORG $+7
$SG80152 DB	'W', 00H, ':', 00H, '\', 00H, 'O', 00H, 'p', 00H, 'e', 00H
	DB	'n', 00H, 'G', 00H, 'L', 00H, '_', 00H, 'V', 00H, 'i', 00H, 'e'
	DB	00H, 'w', 00H, 'e', 00H, 'r', 00H, '\', 00H, 'l', 00H, 'i', 00H
	DB	'b', 00H, '\', 00H, 's', 00H, 't', 00H, 'b', 00H, '_', 00H, 'i'
	DB	00H, 'm', 00H, 'a', 00H, 'g', 00H, 'e', 00H, '.', 00H, 'h', 00H
	DB	00H, 00H
	ORG $+6
$SG80261 DB	'not enough pixels', 00H
	ORG $+6
$SG80252 DB	'W', 00H, ':', 00H, '\', 00H, 'O', 00H, 'p', 00H, 'e', 00H
	DB	'n', 00H, 'G', 00H, 'L', 00H, '_', 00H, 'V', 00H, 'i', 00H, 'e'
	DB	00H, 'w', 00H, 'e', 00H, 'r', 00H, '\', 00H, 'l', 00H, 'i', 00H
	DB	'b', 00H, '\', 00H, 's', 00H, 't', 00H, 'b', 00H, '_', 00H, 'i'
	DB	00H, 'm', 00H, 'a', 00H, 'g', 00H, 'e', 00H, '.', 00H, 'h', 00H
	DB	00H, 00H
	ORG $+6
$SG80266 DB	'invalid filter', 00H
	ORG $+1
$SG80283 DB	'd', 00H, 'e', 00H, 'p', 00H, 't', 00H, 'h', 00H, ' ', 00H
	DB	'=', 00H, '=', 00H, ' ', 00H, '1', 00H, 00H, 00H
	ORG $+2
$SG80253 DB	'o', 00H, 'u', 00H, 't', 00H, '_', 00H, 'n', 00H, ' ', 00H
	DB	'=', 00H, '=', 00H, ' ', 00H, 's', 00H, '-', 00H, '>', 00H, 'i'
	DB	00H, 'm', 00H, 'g', 00H, '_', 00H, 'n', 00H, ' ', 00H, '|', 00H
	DB	'|', 00H, ' ', 00H, 'o', 00H, 'u', 00H, 't', 00H, '_', 00H, 'n'
	DB	00H, ' ', 00H, '=', 00H, '=', 00H, ' ', 00H, 's', 00H, '-', 00H
	DB	'>', 00H, 'i', 00H, 'm', 00H, 'g', 00H, '_', 00H, 'n', 00H, '+'
	DB	00H, '1', 00H, 00H, 00H
	ORG $+6
$SG80255 DB	'outofmem', 00H
	ORG $+7
$SG80257 DB	'too large', 00H
	ORG $+6
$SG80259 DB	'too large', 00H
	ORG $+6
$SG80263 DB	'outofmem', 00H
	ORG $+7
$SG80294 DB	'i', 00H, 'm', 00H, 'g', 00H, '_', 00H, 'n', 00H, '+', 00H
	DB	'1', 00H, ' ', 00H, '=', 00H, '=', 00H, ' ', 00H, 'o', 00H, 'u'
	DB	00H, 't', 00H, '_', 00H, 'n', 00H, 00H, 00H
	ORG $+6
$SG80282 DB	'W', 00H, ':', 00H, '\', 00H, 'O', 00H, 'p', 00H, 'e', 00H
	DB	'n', 00H, 'G', 00H, 'L', 00H, '_', 00H, 'V', 00H, 'i', 00H, 'e'
	DB	00H, 'w', 00H, 'e', 00H, 'r', 00H, '\', 00H, 'l', 00H, 'i', 00H
	DB	'b', 00H, '\', 00H, 's', 00H, 't', 00H, 'b', 00H, '_', 00H, 'i'
	DB	00H, 'm', 00H, 'a', 00H, 'g', 00H, 'e', 00H, '.', 00H, 'h', 00H
	DB	00H, 00H
	ORG $+6
$SG80298 DB	'i', 00H, 'm', 00H, 'g', 00H, '_', 00H, 'n', 00H, ' ', 00H
	DB	'=', 00H, '=', 00H, ' ', 00H, '3', 00H, 00H, 00H
	ORG $+2
$SG80293 DB	'W', 00H, ':', 00H, '\', 00H, 'O', 00H, 'p', 00H, 'e', 00H
	DB	'n', 00H, 'G', 00H, 'L', 00H, '_', 00H, 'V', 00H, 'i', 00H, 'e'
	DB	00H, 'w', 00H, 'e', 00H, 'r', 00H, '\', 00H, 'l', 00H, 'i', 00H
	DB	'b', 00H, '\', 00H, 's', 00H, 't', 00H, 'b', 00H, '_', 00H, 'i'
	DB	00H, 'm', 00H, 'a', 00H, 'g', 00H, 'e', 00H, '.', 00H, 'h', 00H
	DB	00H, 00H
	ORG $+6
$SG80357 DB	'o', 00H, 'u', 00H, 't', 00H, '_', 00H, 'n', 00H, ' ', 00H
	DB	'=', 00H, '=', 00H, ' ', 00H, '2', 00H, ' ', 00H, '|', 00H, '|'
	DB	00H, ' ', 00H, 'o', 00H, 'u', 00H, 't', 00H, '_', 00H, 'n', 00H
	DB	' ', 00H, '=', 00H, '=', 00H, ' ', 00H, '4', 00H, 00H, 00H
	ORG $+6
$SG80297 DB	'W', 00H, ':', 00H, '\', 00H, 'O', 00H, 'p', 00H, 'e', 00H
	DB	'n', 00H, 'G', 00H, 'L', 00H, '_', 00H, 'V', 00H, 'i', 00H, 'e'
	DB	00H, 'w', 00H, 'e', 00H, 'r', 00H, '\', 00H, 'l', 00H, 'i', 00H
	DB	'b', 00H, '\', 00H, 's', 00H, 't', 00H, 'b', 00H, '_', 00H, 'i'
	DB	00H, 'm', 00H, 'a', 00H, 'g', 00H, 'e', 00H, '.', 00H, 'h', 00H
	DB	00H, 00H
	ORG $+6
$SG80336 DB	'outofmem', 00H
	ORG $+7
$SG80380 DB	'o', 00H, 'u', 00H, 't', 00H, '_', 00H, 'n', 00H, ' ', 00H
	DB	'=', 00H, '=', 00H, ' ', 00H, '2', 00H, ' ', 00H, '|', 00H, '|'
	DB	00H, ' ', 00H, 'o', 00H, 'u', 00H, 't', 00H, '_', 00H, 'n', 00H
	DB	' ', 00H, '=', 00H, '=', 00H, ' ', 00H, '4', 00H, 00H, 00H
	ORG $+6
$SG80356 DB	'W', 00H, ':', 00H, '\', 00H, 'O', 00H, 'p', 00H, 'e', 00H
	DB	'n', 00H, 'G', 00H, 'L', 00H, '_', 00H, 'V', 00H, 'i', 00H, 'e'
	DB	00H, 'w', 00H, 'e', 00H, 'r', 00H, '\', 00H, 'l', 00H, 'i', 00H
	DB	'b', 00H, '\', 00H, 's', 00H, 't', 00H, 'b', 00H, '_', 00H, 'i'
	DB	00H, 'm', 00H, 'a', 00H, 'g', 00H, 'e', 00H, '.', 00H, 'h', 00H
	DB	00H, 00H
	ORG $+6
$SG80453 DB	's', 00H, '-', 00H, '>', 00H, 'i', 00H, 'm', 00H, 'g', 00H
	DB	'_', 00H, 'o', 00H, 'u', 00H, 't', 00H, '_', 00H, 'n', 00H, ' '
	DB	00H, '=', 00H, '=', 00H, ' ', 00H, '4', 00H, 00H, 00H
	ORG $+4
$SG80379 DB	'W', 00H, ':', 00H, '\', 00H, 'O', 00H, 'p', 00H, 'e', 00H
	DB	'n', 00H, 'G', 00H, 'L', 00H, '_', 00H, 'V', 00H, 'i', 00H, 'e'
	DB	00H, 'w', 00H, 'e', 00H, 'r', 00H, '\', 00H, 'l', 00H, 'i', 00H
	DB	'b', 00H, '\', 00H, 's', 00H, 't', 00H, 'b', 00H, '_', 00H, 'i'
	DB	00H, 'm', 00H, 'a', 00H, 'g', 00H, 'e', 00H, '.', 00H, 'h', 00H
	DB	00H, 00H
	ORG $+6
$SG80406 DB	'outofmem', 00H
	ORG $+7
$SG80551 DB	'multiple IHDR', 00H
	ORG $+2
$SG80559 DB	'1/2/4/8/16-bit only', 00H
	ORG $+4
$SG80452 DB	'W', 00H, ':', 00H, '\', 00H, 'O', 00H, 'p', 00H, 'e', 00H
	DB	'n', 00H, 'G', 00H, 'L', 00H, '_', 00H, 'V', 00H, 'i', 00H, 'e'
	DB	00H, 'w', 00H, 'e', 00H, 'r', 00H, '\', 00H, 'l', 00H, 'i', 00H
	DB	'b', 00H, '\', 00H, 's', 00H, 't', 00H, 'b', 00H, '_', 00H, 'i'
	DB	00H, 'm', 00H, 'a', 00H, 'g', 00H, 'e', 00H, '.', 00H, 'h', 00H
	DB	00H, 00H
	ORG $+6
$SG80553 DB	'bad IHDR len', 00H
	ORG $+3
$SG80555 DB	'too large', 00H
	ORG $+6
$SG80557 DB	'too large', 00H
	ORG $+6
$SG80561 DB	'bad ctype', 00H
	ORG $+6
$SG80563 DB	'bad ctype', 00H
	ORG $+6
$SG80567 DB	'bad ctype', 00H
	ORG $+6
$SG80569 DB	'bad comp method', 00H
$SG80571 DB	'bad filter method', 00H
	ORG $+6
$SG80573 DB	'bad interlace method', 00H
	ORG $+3
$SG80576 DB	'0-pixel image', 00H
	ORG $+2
$SG80580 DB	'too large', 00H
	ORG $+6
$SG80582 DB	'too large', 00H
	ORG $+6
$SG80585 DB	'first not IHDR', 00H
	ORG $+1
$SG80587 DB	'invalid PLTE', 00H
	ORG $+3
$SG80589 DB	'invalid PLTE', 00H
	ORG $+3
$SG80592 DB	'first not IHDR', 00H
	ORG $+1
$SG80594 DB	'tRNS after IDAT', 00H
$SG80599 DB	'tRNS before PLTE', 00H
	ORG $+7
$SG80601 DB	'bad tRNS len', 00H
	ORG $+3
$SG80603 DB	'tRNS with alpha', 00H
$SG80605 DB	'bad tRNS len', 00H
	ORG $+3
$SG80611 DB	'first not IHDR', 00H
	ORG $+1
$SG80613 DB	'no PLTE', 00H
$SG80617 DB	'IDAT size limit', 00H
$SG80622 DB	'outofmem', 00H
	ORG $+7
$SG80624 DB	'outofdata', 00H
	ORG $+6
$SG80627 DB	'first not IHDR', 00H
	ORG $+1
$SG80630 DB	'no IDAT', 00H
$SG80650 DB	'first not IHDR', 00H
	ORG $+1
$SG80669 DB	'bad req_comp', 00H
	ORG $+3
$SG80675 DB	'bad bits_per_channel', 00H
	ORG $+3
$SG80759 DB	'v', 00H, ' ', 00H, '<', 00H, ' ', 00H, '2', 00H, '5', 00H
	DB	'6', 00H, 00H, 00H
$SG80826 DB	'not BMP', 00H
$SG80758 DB	'W', 00H, ':', 00H, '\', 00H, 'O', 00H, 'p', 00H, 'e', 00H
	DB	'n', 00H, 'G', 00H, 'L', 00H, '_', 00H, 'V', 00H, 'i', 00H, 'e'
	DB	00H, 'w', 00H, 'e', 00H, 'r', 00H, '\', 00H, 'l', 00H, 'i', 00H
	DB	'b', 00H, '\', 00H, 's', 00H, 't', 00H, 'b', 00H, '_', 00H, 'i'
	DB	00H, 'm', 00H, 'a', 00H, 'g', 00H, 'e', 00H, '.', 00H, 'h', 00H
	DB	00H, 00H
	ORG $+6
$SG80761 DB	'b', 00H, 'i', 00H, 't', 00H, 's', 00H, ' ', 00H, '>', 00H
	DB	'=', 00H, ' ', 00H, '0', 00H, ' ', 00H, '&', 00H, '&', 00H, ' '
	DB	00H, 'b', 00H, 'i', 00H, 't', 00H, 's', 00H, ' ', 00H, '<', 00H
	DB	'=', 00H, ' ', 00H, '8', 00H, 00H, 00H
	ORG $+2
$SG80828 DB	'bad BMP', 00H
$SG80760 DB	'W', 00H, ':', 00H, '\', 00H, 'O', 00H, 'p', 00H, 'e', 00H
	DB	'n', 00H, 'G', 00H, 'L', 00H, '_', 00H, 'V', 00H, 'i', 00H, 'e'
	DB	00H, 'w', 00H, 'e', 00H, 'r', 00H, '\', 00H, 'l', 00H, 'i', 00H
	DB	'b', 00H, '\', 00H, 's', 00H, 't', 00H, 'b', 00H, '_', 00H, 'i'
	DB	00H, 'm', 00H, 'a', 00H, 'g', 00H, 'e', 00H, '.', 00H, 'h', 00H
	DB	00H, 00H
	ORG $+6
$SG80830 DB	'unknown BMP', 00H
	ORG $+4
$SG80834 DB	'bad BMP', 00H
$SG80838 DB	'BMP RLE', 00H
$SG80840 DB	'BMP JPEG/PNG', 00H
	ORG $+3
$SG80842 DB	'bad BMP', 00H
$SG80854 DB	'bad BMP', 00H
$SG80855 DB	'bad BMP', 00H
$SG80857 DB	'bad BMP', 00H
$SG80985 DB	'too large', 00H
	ORG $+6
$SG80987 DB	'too large', 00H
	ORG $+6
$SG80995 DB	'bad header', 00H
	ORG $+5
$SG80999 DB	'bad offset', 00H
	ORG $+5
$SG81005 DB	'too large', 00H
	ORG $+6
$SG81007 DB	'outofmem', 00H
	ORG $+7
$SG81012 DB	'invalid', 00H
$SG81020 DB	'bad bpp', 00H
$SG81041 DB	'bad masks', 00H
	ORG $+6
$SG81044 DB	'bad masks', 00H
	ORG $+6
$SG81231 DB	'too large', 00H
	ORG $+6
$SG81233 DB	'too large', 00H
	ORG $+6
$SG81238 DB	'bad format', 00H
	ORG $+5
$SG81241 DB	'too large', 00H
	ORG $+6
$SG81243 DB	'outofmem', 00H
	ORG $+7
$SG81248 DB	'bad palette', 00H
	ORG $+4
$SG81250 DB	'outofmem', 00H
	ORG $+7
$SG81254 DB	't', 00H, 'g', 00H, 'a', 00H, '_', 00H, 'c', 00H, 'o', 00H
	DB	'm', 00H, 'p', 00H, ' ', 00H, '=', 00H, '=', 00H, ' ', 00H, 'S'
	DB	00H, 'T', 00H, 'B', 00H, 'I', 00H, '_', 00H, 'r', 00H, 'g', 00H
	DB	'b', 00H, 00H, 00H
	ORG $+6
$SG81256 DB	'bad palette', 00H
$SG81466 DB	'S', 080H, 0f6H, '4', 00H
	ORG $+7
$SG81253 DB	'W', 00H, ':', 00H, '\', 00H, 'O', 00H, 'p', 00H, 'e', 00H
	DB	'n', 00H, 'G', 00H, 'L', 00H, '_', 00H, 'V', 00H, 'i', 00H, 'e'
	DB	00H, 'w', 00H, 'e', 00H, 'r', 00H, '\', 00H, 'l', 00H, 'i', 00H
	DB	'b', 00H, '\', 00H, 's', 00H, 't', 00H, 'b', 00H, '_', 00H, 'i'
	DB	00H, 'm', 00H, 'a', 00H, 'g', 00H, 'e', 00H, '.', 00H, 'h', 00H
	DB	00H, 00H
	ORG $+6
$SG81402 DB	'not PSD', 00H
$SG81268 DB	'W', 00H, ':', 00H, '\', 00H, 'O', 00H, 'p', 00H, 'e', 00H
	DB	'n', 00H, 'G', 00H, 'L', 00H, '_', 00H, 'V', 00H, 'i', 00H, 'e'
	DB	00H, 'w', 00H, 'e', 00H, 'r', 00H, '\', 00H, 'l', 00H, 'i', 00H
	DB	'b', 00H, '\', 00H, 's', 00H, 't', 00H, 'b', 00H, '_', 00H, 'i'
	DB	00H, 'm', 00H, 'a', 00H, 'g', 00H, 'e', 00H, '.', 00H, 'h', 00H
	DB	00H, 00H
	ORG $+6
$SG81269 DB	't', 00H, 'g', 00H, 'a', 00H, '_', 00H, 'c', 00H, 'o', 00H
	DB	'm', 00H, 'p', 00H, ' ', 00H, '=', 00H, '=', 00H, ' ', 00H, 'S'
	DB	00H, 'T', 00H, 'B', 00H, 'I', 00H, '_', 00H, 'r', 00H, 'g', 00H
	DB	'b', 00H, 00H, 00H
	ORG $+6
$SG81404 DB	'wrong version', 00H
	ORG $+2
$SG81407 DB	'wrong channel count', 00H
	ORG $+4
$SG81409 DB	'too large', 00H
	ORG $+6
$SG81411 DB	'too large', 00H
	ORG $+6
$SG81413 DB	'unsupported bit depth', 00H
	ORG $+2
$SG81415 DB	'wrong color format', 00H
	ORG $+5
$SG81417 DB	'bad compression', 00H
$SG81419 DB	'too large', 00H
	ORG $+6
$SG81423 DB	'outofmem', 00H
	ORG $+7
$SG81429 DB	'corrupt', 00H
$SG81468 DB	'PICT', 00H
	ORG $+3
$SG81498 DB	'bad file', 00H
	ORG $+7
$SG81580 DB	'bad format', 00H
	ORG $+5
$SG81582 DB	'bad file', 00H
	ORG $+7
$SG81584 DB	'bad format', 00H
	ORG $+5
$SG81586 DB	'bad format', 00H
	ORG $+5
$SG81591 DB	'bad file', 00H
	ORG $+7
$SG81596 DB	'bad file', 00H
	ORG $+7
$SG81602 DB	'bad file', 00H
	ORG $+7
$SG81605 DB	'bad file', 00H
	ORG $+7
$SG81637 DB	'too large', 00H
	ORG $+6
$SG81639 DB	'too large', 00H
	ORG $+6
$SG81641 DB	'bad file', 00H
	ORG $+7
$SG81643 DB	'too large', 00H
	ORG $+6
$SG81645 DB	'outofmem', 00H
	ORG $+7
$SG81735 DB	'not GIF', 00H
$SG81737 DB	'not GIF', 00H
$SG81739 DB	'not GIF', 00H
$SG81742 DB	'too large', 00H
	ORG $+6
$SG81744 DB	'too large', 00H
	ORG $+6
$SG81758 DB	'outofmem', 00H
	ORG $+7
$SG81825 DB	'no clear code', 00H
	ORG $+2
$SG81829 DB	'too many codes', 00H
	ORG $+1
$SG81831 DB	'illegal code in raster', 00H
	ORG $+1
$SG81833 DB	'illegal code in raster', 00H
	ORG $+1
$SG81890 DB	'too large', 00H
	ORG $+6
$SG81893 DB	'outofmem', 00H
	ORG $+7
$SG81904 DB	'bad Image Descriptor', 00H
	ORG $+3
$SG81912 DB	'missing color table', 00H
CONST	ENDS
PUBLIC	?strrchr@@YAPEADQEADH@Z				; strrchr
PUBLIC	??0ImVec2@@QEAA@MM@Z				; ImVec2::ImVec2
PUBLIC	??0ImVec4@@QEAA@MMMM@Z				; ImVec4::ImVec4
PUBLIC	??0?$ImVector@G@@QEAA@AEBU0@@Z			; ImVector<unsigned short>::ImVector<unsigned short>
PUBLIC	??4?$ImVector@G@@QEAAAEAU0@AEBU0@@Z		; ImVector<unsigned short>::operator=
PUBLIC	??1?$ImVector@G@@QEAA@XZ			; ImVector<unsigned short>::~ImVector<unsigned short>
PUBLIC	?clear@?$ImVector@G@@QEAAXXZ			; ImVector<unsigned short>::clear
PUBLIC	?_grow_capacity@?$ImVector@G@@QEBAHH@Z		; ImVector<unsigned short>::_grow_capacity
PUBLIC	?resize@?$ImVector@G@@QEAAXH@Z			; ImVector<unsigned short>::resize
PUBLIC	?reserve@?$ImVector@G@@QEAAXH@Z			; ImVector<unsigned short>::reserve
PUBLIC	??1ImGuiIO@@QEAA@XZ				; ImGuiIO::~ImGuiIO
PUBLIC	??0ImGuiIO@@QEAA@AEBU0@@Z			; ImGuiIO::ImGuiIO
PUBLIC	ldexpf
PUBLIC	__local_stdio_printf_options
PUBLIC	_vfprintf_l
PUBLIC	fprintf
PUBLIC	_vsnprintf_l
PUBLIC	_vsprintf_l
PUBLIC	sprintf
PUBLIC	?cos@@YAMM@Z					; cos
PUBLIC	?ldexp@@YAMMH@Z					; ldexp
PUBLIC	?pow@@YAMMM@Z					; pow
PUBLIC	?sin@@YAMM@Z					; sin
PUBLIC	stbi_load_from_memory
PUBLIC	stbi_load_from_callbacks
PUBLIC	stbi_load
PUBLIC	stbi_load_from_file
PUBLIC	stbi_load_gif_from_memory
PUBLIC	stbi_load_16_from_memory
PUBLIC	stbi_load_16_from_callbacks
PUBLIC	stbi_load_16
PUBLIC	stbi_load_from_file_16
PUBLIC	stbi_loadf_from_memory
PUBLIC	stbi_loadf_from_callbacks
PUBLIC	stbi_loadf
PUBLIC	stbi_loadf_from_file
PUBLIC	stbi_hdr_to_ldr_gamma
PUBLIC	stbi_hdr_to_ldr_scale
PUBLIC	stbi_ldr_to_hdr_gamma
PUBLIC	stbi_ldr_to_hdr_scale
PUBLIC	stbi_is_hdr_from_callbacks
PUBLIC	stbi_is_hdr_from_memory
PUBLIC	stbi_is_hdr
PUBLIC	stbi_is_hdr_from_file
PUBLIC	stbi_failure_reason
PUBLIC	stbi_image_free
PUBLIC	stbi_info_from_memory
PUBLIC	stbi_info_from_callbacks
PUBLIC	stbi_is_16_bit_from_memory
PUBLIC	stbi_is_16_bit_from_callbacks
PUBLIC	stbi_info
PUBLIC	stbi_info_from_file
PUBLIC	stbi_is_16_bit
PUBLIC	stbi_is_16_bit_from_file
PUBLIC	stbi_set_unpremultiply_on_load
PUBLIC	stbi_convert_iphone_png_to_rgb
PUBLIC	stbi_set_flip_vertically_on_load
PUBLIC	stbi_set_unpremultiply_on_load_thread
PUBLIC	stbi_convert_iphone_png_to_rgb_thread
PUBLIC	stbi_set_flip_vertically_on_load_thread
PUBLIC	stbi_zlib_decode_malloc_guesssize
PUBLIC	stbi_zlib_decode_malloc_guesssize_headerflag
PUBLIC	stbi_zlib_decode_malloc
PUBLIC	stbi_zlib_decode_buffer
PUBLIC	stbi_zlib_decode_noheader_malloc
PUBLIC	stbi_zlib_decode_noheader_buffer
PUBLIC	?init_framebuffer@@YAXPEAUgl_renderer@@PEBD1@Z	; init_framebuffer
PUBLIC	?framebuffer_size_callback@@YAXPEAUGLFWwindow@@HH@Z ; framebuffer_size_callback
PUBLIC	?process_input@@YAXPEAUGLFWwindow@@PEAUgl_renderer@@I@Z ; process_input
PUBLIC	main
PUBLIC	?_OptionsStorage@?1??__local_stdio_printf_options@@9@4_KA ; `__local_stdio_printf_options'::`2'::_OptionsStorage
PUBLIC	__real@00000000
PUBLIC	__real@3a83126f
PUBLIC	__real@3c23d70a
PUBLIC	__real@3c8efa35
PUBLIC	__real@3d03126f
PUBLIC	__real@3d4ccccd
PUBLIC	__real@3db851ec
PUBLIC	__real@3dcccccd
PUBLIC	__real@3f000000
PUBLIC	__real@3f4ccccd
PUBLIC	__real@3f800000
PUBLIC	__real@3faaaaab
PUBLIC	__real@3fe0000000000000
PUBLIC	__real@3fe8a3d70a3d70a4
PUBLIC	__real@3ff0000000000000
PUBLIC	__real@40000000
PUBLIC	__real@40200000
PUBLIC	__real@40400000
PUBLIC	__real@40800000
PUBLIC	__real@40a00000
PUBLIC	__real@40e00000
PUBLIC	__real@41200000
PUBLIC	__real@42340000
PUBLIC	__real@42480000
PUBLIC	__real@42b40000
PUBLIC	__real@42c80000
PUBLIC	__real@437f0000
PUBLIC	__real@43fa0000
PUBLIC	__real@477fff00
PUBLIC	__real@bf800000
PUBLIC	__real@c2b40000
PUBLIC	__xmm@00000200000002000000020000000200
PUBLIC	__xmm@00080008000800080008000800080008
PUBLIC	__xmm@00ff00ff00ff00ff00ff00ff00ff00ff
PUBLIC	__xmm@01010000010100000101000001010000
PUBLIC	__xmm@08a914e808a914e808a914e808a914e8
PUBLIC	__xmm@11c8e09e11c8e09e11c8e09e11c8e09e
PUBLIC	__xmm@11c8f9c311c8f9c311c8f9c311c8f9c3
PUBLIC	__xmm@12d0046b12d0046b12d0046b12d0046b
PUBLIC	__xmm@166f166f166f166f166f166f166f166f
PUBLIC	__xmm@1c5a1c5a1c5a1c5a1c5a1c5a1c5a1c5a
PUBLIC	__xmm@80000000800000008000000080000000
PUBLIC	__xmm@80808080808080808080808080808080
PUBLIC	__xmm@e09ee565e09ee565e09ee565e09ee565
PUBLIC	__xmm@e9cf12d0e9cf12d0e9cf12d0e9cf12d0
PUBLIC	__xmm@eb1a08a9eb1a08a9eb1a08a9eb1a08a9
PUBLIC	__xmm@f493f493f493f493f493f493f493f493
PUBLIC	__xmm@f9c31a9df9c31a9df9c31a9df9c31a9d
PUBLIC	__xmm@fa7efa7efa7efa7efa7efa7efa7efa7e
EXTRN	__imp_glBindTexture:PROC
EXTRN	__imp_glClear:PROC
EXTRN	__imp_glClearColor:PROC
EXTRN	__imp_glDrawElements:PROC
EXTRN	__imp_glEnable:PROC
EXTRN	__imp_glGenTextures:PROC
EXTRN	__imp_glLineWidth:PROC
EXTRN	__imp_glTexImage2D:PROC
EXTRN	__imp_glTexParameteri:PROC
EXTRN	__imp_glViewport:PROC
EXTRN	__imp_glewInit:PROC
EXTRN	memcpy:PROC
EXTRN	memset:PROC
EXTRN	strrchr:PROC
EXTRN	strcat:PROC
EXTRN	strcmp:PROC
EXTRN	strcpy:PROC
EXTRN	strlen:PROC
EXTRN	strncmp:PROC
EXTRN	_wassert:PROC
EXTRN	?CreateContext@ImGui@@YAPEAUImGuiContext@@PEAUImFontAtlas@@@Z:PROC ; ImGui::CreateContext
EXTRN	?GetIO@ImGui@@YAAEAUImGuiIO@@XZ:PROC		; ImGui::GetIO
EXTRN	?GetStyle@ImGui@@YAAEAUImGuiStyle@@XZ:PROC	; ImGui::GetStyle
EXTRN	?NewFrame@ImGui@@YAXXZ:PROC			; ImGui::NewFrame
EXTRN	?Render@ImGui@@YAXXZ:PROC			; ImGui::Render
EXTRN	?GetDrawData@ImGui@@YAPEAUImDrawData@@XZ:PROC	; ImGui::GetDrawData
EXTRN	?StyleColorsDark@ImGui@@YAXPEAUImGuiStyle@@@Z:PROC ; ImGui::StyleColorsDark
EXTRN	?Begin@ImGui@@YA_NPEBDPEA_NH@Z:PROC		; ImGui::Begin
EXTRN	?End@ImGui@@YAXXZ:PROC				; ImGui::End
EXTRN	?SetNextWindowPos@ImGui@@YAXAEBUImVec2@@H0@Z:PROC ; ImGui::SetNextWindowPos
EXTRN	?SetNextWindowSize@ImGui@@YAXAEBUImVec2@@H@Z:PROC ; ImGui::SetNextWindowSize
EXTRN	?SetNextWindowViewport@ImGui@@YAXI@Z:PROC	; ImGui::SetNextWindowViewport
EXTRN	?GetContentRegionAvail@ImGui@@YA?AUImVec2@@XZ:PROC ; ImGui::GetContentRegionAvail
EXTRN	?PushStyleVar@ImGui@@YAXHM@Z:PROC		; ImGui::PushStyleVar
EXTRN	?PushStyleVar@ImGui@@YAXHAEBUImVec2@@@Z:PROC	; ImGui::PushStyleVar
EXTRN	?PopStyleVar@ImGui@@YAXH@Z:PROC			; ImGui::PopStyleVar
EXTRN	?PushItemWidth@ImGui@@YAXM@Z:PROC		; ImGui::PushItemWidth
EXTRN	?PopItemWidth@ImGui@@YAXXZ:PROC			; ImGui::PopItemWidth
EXTRN	?SameLine@ImGui@@YAXMM@Z:PROC			; ImGui::SameLine
EXTRN	?Spacing@ImGui@@YAXXZ:PROC			; ImGui::Spacing
EXTRN	?PushID@ImGui@@YAXPEBD@Z:PROC			; ImGui::PushID
EXTRN	?PopID@ImGui@@YAXXZ:PROC			; ImGui::PopID
EXTRN	?GetID@ImGui@@YAIPEBD@Z:PROC			; ImGui::GetID
EXTRN	?Text@ImGui@@YAXPEBDZZ:PROC			; ImGui::Text
EXTRN	?Button@ImGui@@YA_NPEBDAEBUImVec2@@@Z:PROC	; ImGui::Button
EXTRN	?Checkbox@ImGui@@YA_NPEBDPEA_N@Z:PROC		; ImGui::Checkbox
EXTRN	?RadioButton@ImGui@@YA_NPEBD_N@Z:PROC		; ImGui::RadioButton
EXTRN	?Image@ImGui@@YAXPEAXAEBUImVec2@@11AEBUImVec4@@2@Z:PROC ; ImGui::Image
EXTRN	?BeginCombo@ImGui@@YA_NPEBD0H@Z:PROC		; ImGui::BeginCombo
EXTRN	?EndCombo@ImGui@@YAXXZ:PROC			; ImGui::EndCombo
EXTRN	?DragFloat@ImGui@@YA_NPEBDPEAMMMM0H@Z:PROC	; ImGui::DragFloat
EXTRN	?SliderFloat@ImGui@@YA_NPEBDPEAMMM0H@Z:PROC	; ImGui::SliderFloat
EXTRN	?ColorPicker4@ImGui@@YA_NPEBDQEAMHPEBM@Z:PROC	; ImGui::ColorPicker4
EXTRN	?CollapsingHeader@ImGui@@YA_NPEBDH@Z:PROC	; ImGui::CollapsingHeader
EXTRN	?Selectable@ImGui@@YA_NPEBD_NHAEBUImVec2@@@Z:PROC ; ImGui::Selectable
EXTRN	?DockSpace@ImGui@@YAIIAEBUImVec2@@HPEBUImGuiWindowClass@@@Z:PROC ; ImGui::DockSpace
EXTRN	?SetItemDefaultFocus@ImGui@@YAXXZ:PROC		; ImGui::SetItemDefaultFocus
EXTRN	?GetMainViewport@ImGui@@YAPEAUImGuiViewport@@XZ:PROC ; ImGui::GetMainViewport
EXTRN	?DebugCheckVersionAndDataLayout@ImGui@@YA_NPEBD_K11111@Z:PROC ; ImGui::DebugCheckVersionAndDataLayout
EXTRN	?MemAlloc@ImGui@@YAPEAX_K@Z:PROC		; ImGui::MemAlloc
EXTRN	?MemFree@ImGui@@YAXPEAX@Z:PROC			; ImGui::MemFree
EXTRN	?UpdatePlatformWindows@ImGui@@YAXXZ:PROC	; ImGui::UpdatePlatformWindows
EXTRN	?RenderPlatformWindowsDefault@ImGui@@YAXPEAX0@Z:PROC ; ImGui::RenderPlatformWindowsDefault
EXTRN	?ImGui_ImplOpenGL3_Init@@YA_NPEBD@Z:PROC	; ImGui_ImplOpenGL3_Init
EXTRN	?ImGui_ImplOpenGL3_NewFrame@@YAXXZ:PROC		; ImGui_ImplOpenGL3_NewFrame
EXTRN	?ImGui_ImplOpenGL3_RenderDrawData@@YAXPEAUImDrawData@@@Z:PROC ; ImGui_ImplOpenGL3_RenderDrawData
EXTRN	?ImGui_ImplGlfw_InitForOpenGL@@YA_NPEAUGLFWwindow@@_N@Z:PROC ; ImGui_ImplGlfw_InitForOpenGL
EXTRN	?ImGui_ImplGlfw_NewFrame@@YAXXZ:PROC		; ImGui_ImplGlfw_NewFrame
EXTRN	glfwInit:PROC
EXTRN	glfwTerminate:PROC
EXTRN	glfwWindowHint:PROC
EXTRN	glfwCreateWindow:PROC
EXTRN	glfwWindowShouldClose:PROC
EXTRN	glfwSetWindowShouldClose:PROC
EXTRN	glfwGetFramebufferSize:PROC
EXTRN	glfwSetFramebufferSizeCallback:PROC
EXTRN	glfwPollEvents:PROC
EXTRN	glfwGetKey:PROC
EXTRN	glfwGetTime:PROC
EXTRN	glfwMakeContextCurrent:PROC
EXTRN	glfwGetCurrentContext:PROC
EXTRN	glfwSwapBuffers:PROC
EXTRN	calloc:PROC
EXTRN	free:PROC
EXTRN	malloc:PROC
EXTRN	realloc:PROC
EXTRN	abs:PROC
EXTRN	ldexp:PROC
EXTRN	ceilf:PROC
EXTRN	cosf:PROC
EXTRN	powf:PROC
EXTRN	sinf:PROC
EXTRN	tanf:PROC
EXTRN	__acrt_iob_func:PROC
EXTRN	fopen_s:PROC
EXTRN	fclose:PROC
EXTRN	feof:PROC
EXTRN	ferror:PROC
EXTRN	fgetc:PROC
EXTRN	fopen:PROC
EXTRN	fread:PROC
EXTRN	fseek:PROC
EXTRN	ftell:PROC
EXTRN	ungetc:PROC
EXTRN	__stdio_common_vfprintf:PROC
EXTRN	__stdio_common_vsprintf:PROC
EXTRN	exit:PROC
EXTRN	_lrotl:PROC
EXTRN	strtod:PROC
EXTRN	strtol:PROC
EXTRN	__CxxFrameHandler4:PROC
EXTRN	__GSHandlerCheck:PROC
EXTRN	__GSHandlerCheck_EH4:PROC
EXTRN	__chkstk:PROC
EXTRN	__security_check_cookie:PROC
EXTRN	__imp___glewActiveTexture:QWORD
EXTRN	__imp___glewBindBuffer:QWORD
EXTRN	__imp___glewBufferData:QWORD
EXTRN	__imp___glewGenBuffers:QWORD
EXTRN	__imp___glewAttachShader:QWORD
EXTRN	__imp___glewCompileShader:QWORD
EXTRN	__imp___glewCreateProgram:QWORD
EXTRN	__imp___glewCreateShader:QWORD
EXTRN	__imp___glewEnableVertexAttribArray:QWORD
EXTRN	__imp___glewGetProgramInfoLog:QWORD
EXTRN	__imp___glewGetProgramiv:QWORD
EXTRN	__imp___glewGetShaderInfoLog:QWORD
EXTRN	__imp___glewGetShaderiv:QWORD
EXTRN	__imp___glewGetUniformLocation:QWORD
EXTRN	__imp___glewLinkProgram:QWORD
EXTRN	__imp___glewShaderSource:QWORD
EXTRN	__imp___glewUniform1f:QWORD
EXTRN	__imp___glewUniform1i:QWORD
EXTRN	__imp___glewUniform3f:QWORD
EXTRN	__imp___glewUniformMatrix4fv:QWORD
EXTRN	__imp___glewUseProgram:QWORD
EXTRN	__imp___glewVertexAttribPointer:QWORD
EXTRN	__imp___glewBindFramebuffer:QWORD
EXTRN	__imp___glewBindRenderbuffer:QWORD
EXTRN	__imp___glewCheckFramebufferStatus:QWORD
EXTRN	__imp___glewFramebufferRenderbuffer:QWORD
EXTRN	__imp___glewFramebufferTexture2D:QWORD
EXTRN	__imp___glewGenFramebuffers:QWORD
EXTRN	__imp___glewGenRenderbuffers:QWORD
EXTRN	__imp___glewGenerateMipmap:QWORD
EXTRN	__imp___glewRenderbufferStorage:QWORD
EXTRN	__imp___glewBindVertexArray:QWORD
EXTRN	__imp___glewGenVertexArrays:QWORD
EXTRN	__ImageBase:BYTE
EXTRN	__security_cookie:QWORD
EXTRN	_fltused:DWORD
EXTRN	_tls_index:DWORD
;	COMDAT ?_OptionsStorage@?1??__local_stdio_printf_options@@9@4_KA
_BSS	SEGMENT
?_OptionsStorage@?1??__local_stdio_printf_options@@9@4_KA DQ 01H DUP (?) ; `__local_stdio_printf_options'::`2'::_OptionsStorage
_BSS	ENDS
_TLS	SEGMENT
?stbi__g_failure_reason@@3PEBDEB DQ 01H DUP (?)		; stbi__g_failure_reason
_TLS	ENDS
_BSS	SEGMENT
?stbi__vertically_flip_on_load_global@@3HA DD 01H DUP (?) ; stbi__vertically_flip_on_load_global
_BSS	ENDS
_TLS	SEGMENT
?stbi__vertically_flip_on_load_local@@3HA DD 01H DUP (?) ; stbi__vertically_flip_on_load_local
?stbi__vertically_flip_on_load_set@@3HA DD 01H DUP (?)	; stbi__vertically_flip_on_load_set
_TLS	ENDS
_BSS	SEGMENT
?stbi__unpremultiply_on_load_global@@3HA DD 01H DUP (?)	; stbi__unpremultiply_on_load_global
?stbi__de_iphone_flag_global@@3HA DD 01H DUP (?)	; stbi__de_iphone_flag_global
_BSS	ENDS
_TLS	SEGMENT
?stbi__unpremultiply_on_load_local@@3HA DD 01H DUP (?)	; stbi__unpremultiply_on_load_local
?stbi__unpremultiply_on_load_set@@3HA DD 01H DUP (?)	; stbi__unpremultiply_on_load_set
?stbi__de_iphone_flag_local@@3HA DD 01H DUP (?)		; stbi__de_iphone_flag_local
?stbi__de_iphone_flag_set@@3HA DD 01H DUP (?)		; stbi__de_iphone_flag_set
_TLS	ENDS
;	COMDAT pdata
pdata	SEGMENT
$pdata$?strrchr@@YAPEADQEADH@Z DD imagerel $LN3
	DD	imagerel $LN3+32
	DD	imagerel $unwind$?strrchr@@YAPEADQEADH@Z
pdata	ENDS
;	COMDAT pdata
pdata	SEGMENT
$pdata$??0?$ImVector@G@@QEAA@AEBU0@@Z DD imagerel $LN3
	DD	imagerel $LN3+75
	DD	imagerel $unwind$??0?$ImVector@G@@QEAA@AEBU0@@Z
pdata	ENDS
;	COMDAT pdata
pdata	SEGMENT
$pdata$??4?$ImVector@G@@QEAAAEAU0@AEBU0@@Z DD imagerel $LN4
	DD	imagerel $LN4+100
	DD	imagerel $unwind$??4?$ImVector@G@@QEAAAEAU0@AEBU0@@Z
pdata	ENDS
;	COMDAT pdata
pdata	SEGMENT
$pdata$??1?$ImVector@G@@QEAA@XZ DD imagerel $LN4
	DD	imagerel $LN4+41
	DD	imagerel $unwind$??1?$ImVector@G@@QEAA@XZ
pdata	ENDS
;	COMDAT pdata
pdata	SEGMENT
$pdata$?clear@?$ImVector@G@@QEAAXXZ DD imagerel $LN4
	DD	imagerel $LN4+76
	DD	imagerel $unwind$?clear@?$ImVector@G@@QEAAXXZ
pdata	ENDS
;	COMDAT pdata
pdata	SEGMENT
$pdata$?_grow_capacity@?$ImVector@G@@QEBAHH@Z DD imagerel $LN7
	DD	imagerel $LN7+101
	DD	imagerel $unwind$?_grow_capacity@?$ImVector@G@@QEBAHH@Z
pdata	ENDS
;	COMDAT pdata
pdata	SEGMENT
$pdata$?resize@?$ImVector@G@@QEAAXH@Z DD imagerel $LN4
	DD	imagerel $LN4+69
	DD	imagerel $unwind$?resize@?$ImVector@G@@QEAAXH@Z
pdata	ENDS
;	COMDAT pdata
pdata	SEGMENT
$pdata$?reserve@?$ImVector@G@@QEAAXH@Z DD imagerel $LN5
	DD	imagerel $LN5+140
	DD	imagerel $unwind$?reserve@?$ImVector@G@@QEAAXH@Z
pdata	ENDS
;	COMDAT pdata
pdata	SEGMENT
$pdata$??1ImGuiIO@@QEAA@XZ DD imagerel $LN3
	DD	imagerel $LN3+33
	DD	imagerel $unwind$??1ImGuiIO@@QEAA@XZ
pdata	ENDS
;	COMDAT pdata
pdata	SEGMENT
$pdata$??0ImGuiIO@@QEAA@AEBU0@@Z DD imagerel $LN4
	DD	imagerel $LN4+2341
	DD	imagerel $unwind$??0ImGuiIO@@QEAA@AEBU0@@Z
pdata	ENDS
;	COMDAT pdata
pdata	SEGMENT
$pdata$ldexpf DD imagerel $LN3
	DD	imagerel $LN3+38
	DD	imagerel $unwind$ldexpf
pdata	ENDS
pdata	SEGMENT
$pdata$HMM_ToRad DD imagerel HMM_ToRad
	DD	imagerel HMM_ToRad+39
	DD	imagerel $unwind$HMM_ToRad
$pdata$HMM_SinF DD imagerel HMM_SinF
	DD	imagerel HMM_SinF+26
	DD	imagerel $unwind$HMM_SinF
$pdata$HMM_CosF DD imagerel HMM_CosF
	DD	imagerel HMM_CosF+26
	DD	imagerel $unwind$HMM_CosF
$pdata$HMM_TanF DD imagerel HMM_TanF
	DD	imagerel HMM_TanF+26
	DD	imagerel $unwind$HMM_TanF
$pdata$HMM_SqrtF DD imagerel HMM_SqrtF
	DD	imagerel HMM_SqrtF+97
	DD	imagerel $unwind$HMM_SqrtF
$pdata$HMM_InvSqrtF DD imagerel HMM_InvSqrtF
	DD	imagerel HMM_InvSqrtF+53
	DD	imagerel $unwind$HMM_InvSqrtF
$pdata$HMM_V2 DD imagerel HMM_V2
	DD	imagerel HMM_V2+76
	DD	imagerel $unwind$HMM_V2
$pdata$HMM_V3 DD imagerel HMM_V3
	DD	imagerel HMM_V3+123
	DD	imagerel $unwind$HMM_V3
$pdata$HMM_V4V DD imagerel HMM_V4V
	DD	imagerel HMM_V4V+132
	DD	imagerel $unwind$HMM_V4V
$pdata$HMM_AddV3 DD imagerel HMM_AddV3
	DD	imagerel HMM_AddV3+155
	DD	imagerel $unwind$HMM_AddV3
$pdata$HMM_SubV3 DD imagerel HMM_SubV3
	DD	imagerel HMM_SubV3+155
	DD	imagerel $unwind$HMM_SubV3
$pdata$HMM_MulV3F DD imagerel HMM_MulV3F
	DD	imagerel HMM_MulV3F+145
	DD	imagerel $unwind$HMM_MulV3F
$pdata$HMM_DivV3F DD imagerel HMM_DivV3F
	DD	imagerel HMM_DivV3F+145
	DD	imagerel $unwind$HMM_DivV3F
$pdata$HMM_Cross DD imagerel HMM_Cross
	DD	imagerel HMM_Cross+225
	DD	imagerel $unwind$HMM_Cross
$pdata$HMM_NormV3 DD imagerel HMM_NormV3
	DD	imagerel HMM_NormV3+213
	DD	imagerel $unwind$HMM_NormV3
$pdata$HMM_LinearCombineV4M4 DD imagerel HMM_LinearCombineV4M4
	DD	imagerel HMM_LinearCombineV4M4+450
	DD	imagerel $unwind$HMM_LinearCombineV4M4
$pdata$HMM_M4D DD imagerel HMM_M4D
	DD	imagerel HMM_M4D+233
	DD	imagerel $unwind$HMM_M4D
$pdata$HMM_MulM4 DD imagerel HMM_MulM4
	DD	imagerel HMM_MulM4+600
	DD	imagerel $unwind$HMM_MulM4
$pdata$HMM_MulM4V4 DD imagerel HMM_MulM4V4
	DD	imagerel HMM_MulM4V4+168
	DD	imagerel $unwind$HMM_MulM4V4
$pdata$HMM_Perspective_RH_NO DD imagerel HMM_Perspective_RH_NO
	DD	imagerel HMM_Perspective_RH_NO+427
	DD	imagerel $unwind$HMM_Perspective_RH_NO
$pdata$HMM_Translate DD imagerel HMM_Translate
	DD	imagerel HMM_Translate+281
	DD	imagerel $unwind$HMM_Translate
$pdata$HMM_Rotate_RH DD imagerel HMM_Rotate_RH
	DD	imagerel HMM_Rotate_RH+1031
	DD	imagerel $unwind$HMM_Rotate_RH
$pdata$HMM_Scale DD imagerel HMM_Scale
	DD	imagerel HMM_Scale+281
	DD	imagerel $unwind$HMM_Scale
$pdata$_HMM_LookAt DD imagerel _HMM_LookAt
	DD	imagerel _HMM_LookAt+952
	DD	imagerel $unwind$_HMM_LookAt
$pdata$HMM_LookAt_RH DD imagerel HMM_LookAt_RH
	DD	imagerel HMM_LookAt_RH+805
	DD	imagerel $unwind$HMM_LookAt_RH
pdata	ENDS
;	COMDAT pdata
pdata	SEGMENT
$pdata$_vfprintf_l DD imagerel $LN3
	DD	imagerel $LN3+67
	DD	imagerel $unwind$_vfprintf_l
pdata	ENDS
;	COMDAT pdata
pdata	SEGMENT
$pdata$fprintf DD imagerel $LN3
	DD	imagerel $LN3+79
	DD	imagerel $unwind$fprintf
pdata	ENDS
;	COMDAT pdata
pdata	SEGMENT
$pdata$_vsnprintf_l DD imagerel $LN5
	DD	imagerel $LN5+117
	DD	imagerel $unwind$_vsnprintf_l
pdata	ENDS
;	COMDAT pdata
pdata	SEGMENT
$pdata$_vsprintf_l DD imagerel $LN3
	DD	imagerel $LN3+66
	DD	imagerel $unwind$_vsprintf_l
pdata	ENDS
;	COMDAT pdata
pdata	SEGMENT
$pdata$sprintf DD imagerel $LN3
	DD	imagerel $LN3+79
	DD	imagerel $unwind$sprintf
pdata	ENDS
;	COMDAT pdata
pdata	SEGMENT
$pdata$?cos@@YAMM@Z DD imagerel $LN3
	DD	imagerel $LN3+26
	DD	imagerel $unwind$?cos@@YAMM@Z
pdata	ENDS
;	COMDAT pdata
pdata	SEGMENT
$pdata$?ldexp@@YAMMH@Z DD imagerel $LN3
	DD	imagerel $LN3+34
	DD	imagerel $unwind$?ldexp@@YAMMH@Z
pdata	ENDS
;	COMDAT pdata
pdata	SEGMENT
$pdata$?pow@@YAMMM@Z DD imagerel $LN3
	DD	imagerel $LN3+38
	DD	imagerel $unwind$?pow@@YAMMM@Z
pdata	ENDS
;	COMDAT pdata
pdata	SEGMENT
$pdata$?sin@@YAMM@Z DD imagerel $LN3
	DD	imagerel $LN3+26
	DD	imagerel $unwind$?sin@@YAMM@Z
pdata	ENDS
pdata	SEGMENT
$pdata$?_stack_resize@@YAHPEAPEAXII@Z DD imagerel ?_stack_resize@@YAHPEAPEAXII@Z
	DD	imagerel ?_stack_resize@@YAHPEAPEAXII@Z+322
	DD	imagerel $unwind$?_stack_resize@@YAHPEAPEAXII@Z
$pdata$?_stack_fit@@YAPEAXPEAPEAXII@Z DD imagerel ?_stack_fit@@YAPEAXPEAPEAXII@Z
	DD	imagerel ?_stack_fit@@YAPEAXPEAPEAXII@Z+215
	DD	imagerel $unwind$?_stack_fit@@YAPEAXPEAPEAXII@Z
$pdata$?_stack_push@@YAPEAXPEAPEAXII@Z DD imagerel ?_stack_push@@YAPEAXPEAPEAXII@Z
	DD	imagerel ?_stack_push@@YAPEAXPEAPEAXII@Z+157
	DD	imagerel $unwind$?_stack_push@@YAPEAXPEAPEAXII@Z
$pdata$stbi_load_from_memory DD imagerel $LN3
	DD	imagerel $LN3+139
	DD	imagerel $unwind$stbi_load_from_memory
$pdata$stbi_load_from_callbacks DD imagerel $LN3
	DD	imagerel $LN3+140
	DD	imagerel $unwind$stbi_load_from_callbacks
$pdata$stbi_load DD imagerel $LN6
	DD	imagerel $LN6+156
	DD	imagerel $unwind$stbi_load
$pdata$stbi_load_from_file DD imagerel $LN4
	DD	imagerel $LN4+195
	DD	imagerel $unwind$stbi_load_from_file
$pdata$stbi_load_gif_from_memory DD imagerel $LN6
	DD	imagerel $LN6+315
	DD	imagerel $unwind$stbi_load_gif_from_memory
$pdata$stbi_load_16_from_memory DD imagerel $LN3
	DD	imagerel $LN3+139
	DD	imagerel $unwind$stbi_load_16_from_memory
$pdata$stbi_load_16_from_callbacks DD imagerel $LN3
	DD	imagerel $LN3+140
	DD	imagerel $unwind$stbi_load_16_from_callbacks
$pdata$stbi_load_16 DD imagerel $LN6
	DD	imagerel $LN6+156
	DD	imagerel $unwind$stbi_load_16
$pdata$stbi_load_from_file_16 DD imagerel $LN4
	DD	imagerel $LN4+195
	DD	imagerel $unwind$stbi_load_from_file_16
$pdata$stbi_loadf_from_memory DD imagerel $LN3
	DD	imagerel $LN3+139
	DD	imagerel $unwind$stbi_loadf_from_memory
$pdata$stbi_loadf_from_callbacks DD imagerel $LN3
	DD	imagerel $LN3+140
	DD	imagerel $unwind$stbi_loadf_from_callbacks
$pdata$stbi_loadf DD imagerel $LN6
	DD	imagerel $LN6+156
	DD	imagerel $unwind$stbi_loadf
$pdata$stbi_loadf_from_file DD imagerel $LN3
	DD	imagerel $LN3+132
	DD	imagerel $unwind$stbi_loadf_from_file
$pdata$stbi_is_hdr_from_callbacks DD imagerel $LN3
	DD	imagerel $LN3+95
	DD	imagerel $unwind$stbi_is_hdr_from_callbacks
$pdata$stbi_is_hdr_from_memory DD imagerel $LN3
	DD	imagerel $LN3+94
	DD	imagerel $unwind$stbi_is_hdr_from_memory
$pdata$stbi_is_hdr DD imagerel $LN4
	DD	imagerel $LN4+80
	DD	imagerel $unwind$stbi_is_hdr
$pdata$stbi_is_hdr_from_file DD imagerel $LN3
	DD	imagerel $LN3+127
	DD	imagerel $unwind$stbi_is_hdr_from_file
$pdata$stbi_image_free DD imagerel $LN3
	DD	imagerel $LN3+24
	DD	imagerel $unwind$stbi_image_free
$pdata$stbi_info_from_memory DD imagerel $LN3
	DD	imagerel $LN3+128
	DD	imagerel $unwind$stbi_info_from_memory
$pdata$stbi_info_from_callbacks DD imagerel $LN3
	DD	imagerel $LN3+129
	DD	imagerel $unwind$stbi_info_from_callbacks
$pdata$stbi_is_16_bit_from_memory DD imagerel $LN3
	DD	imagerel $LN3+94
	DD	imagerel $unwind$stbi_is_16_bit_from_memory
$pdata$stbi_is_16_bit_from_callbacks DD imagerel $LN3
	DD	imagerel $LN3+95
	DD	imagerel $unwind$stbi_is_16_bit_from_callbacks
$pdata$stbi_info DD imagerel $LN4
	DD	imagerel $LN4+116
	DD	imagerel $unwind$stbi_info
$pdata$stbi_info_from_file DD imagerel $LN3
	DD	imagerel $LN3+166
	DD	imagerel $unwind$stbi_info_from_file
$pdata$stbi_is_16_bit DD imagerel $LN4
	DD	imagerel $LN4+86
	DD	imagerel $unwind$stbi_is_16_bit
$pdata$stbi_is_16_bit_from_file DD imagerel $LN3
	DD	imagerel $LN3+127
	DD	imagerel $unwind$stbi_is_16_bit_from_file
$pdata$stbi_zlib_decode_malloc_guesssize DD imagerel $LN7
	DD	imagerel $LN7+249
	DD	imagerel $unwind$stbi_zlib_decode_malloc_guesssize
$pdata$stbi_zlib_decode_malloc_guesssize_headerflag DD imagerel $LN7
	DD	imagerel $LN7+252
	DD	imagerel $unwind$stbi_zlib_decode_malloc_guesssize_headerflag
$pdata$stbi_zlib_decode_malloc DD imagerel $LN3
	DD	imagerel $LN3+48
	DD	imagerel $unwind$stbi_zlib_decode_malloc
$pdata$stbi_zlib_decode_buffer DD imagerel $LN5
	DD	imagerel $LN5+180
	DD	imagerel $unwind$stbi_zlib_decode_buffer
$pdata$stbi_zlib_decode_noheader_malloc DD imagerel $LN7
	DD	imagerel $LN7+236
	DD	imagerel $unwind$stbi_zlib_decode_noheader_malloc
$pdata$stbi_zlib_decode_noheader_buffer DD imagerel $LN5
	DD	imagerel $LN5+180
	DD	imagerel $unwind$stbi_zlib_decode_noheader_buffer
$pdata$?stbi__cpuid3@@YAHXZ DD imagerel ?stbi__cpuid3@@YAHXZ
	DD	imagerel ?stbi__cpuid3@@YAHXZ+80
	DD	imagerel $unwind$?stbi__cpuid3@@YAHXZ
$pdata$?stbi__sse2_available@@YAHXZ DD imagerel ?stbi__sse2_available@@YAHXZ
	DD	imagerel ?stbi__sse2_available@@YAHXZ+54
	DD	imagerel $unwind$?stbi__sse2_available@@YAHXZ
$pdata$?stbi__refill_buffer@@YAXPEAUstbi__context@@@Z DD imagerel ?stbi__refill_buffer@@YAXPEAUstbi__context@@@Z
	DD	imagerel ?stbi__refill_buffer@@YAXPEAUstbi__context@@@Z+231
	DD	imagerel $unwind$?stbi__refill_buffer@@YAXPEAUstbi__context@@@Z
$pdata$?stbi__start_mem@@YAXPEAUstbi__context@@PEBEH@Z DD imagerel ?stbi__start_mem@@YAXPEAUstbi__context@@PEBEH@Z
	DD	imagerel ?stbi__start_mem@@YAXPEAUstbi__context@@PEBEH@Z+147
	DD	imagerel $unwind$?stbi__start_mem@@YAXPEAUstbi__context@@PEBEH@Z
$pdata$?stbi__start_callbacks@@YAXPEAUstbi__context@@PEAUstbi_io_callbacks@@PEAX@Z DD imagerel ?stbi__start_callbacks@@YAXPEAUstbi__context@@PEAUstbi_io_callbacks@@PEAX@Z
	DD	imagerel ?stbi__start_callbacks@@YAXPEAUstbi__context@@PEAUstbi_io_callbacks@@PEAX@Z+184
	DD	imagerel $unwind$?stbi__start_callbacks@@YAXPEAUstbi__context@@PEAUstbi_io_callbacks@@PEAX@Z
$pdata$?stbi__stdio_read@@YAHPEAXPEADH@Z DD imagerel ?stbi__stdio_read@@YAHPEAXPEADH@Z
	DD	imagerel ?stbi__stdio_read@@YAHPEAXPEADH@Z+52
	DD	imagerel $unwind$?stbi__stdio_read@@YAHPEAXPEADH@Z
$pdata$?stbi__stdio_skip@@YAXPEAXH@Z DD imagerel ?stbi__stdio_skip@@YAXPEAXH@Z
	DD	imagerel ?stbi__stdio_skip@@YAXPEAXH@Z+73
	DD	imagerel $unwind$?stbi__stdio_skip@@YAXPEAXH@Z
$pdata$?stbi__stdio_eof@@YAHPEAX@Z DD imagerel ?stbi__stdio_eof@@YAHPEAX@Z
	DD	imagerel ?stbi__stdio_eof@@YAHPEAX@Z+64
	DD	imagerel $unwind$?stbi__stdio_eof@@YAHPEAX@Z
$pdata$?stbi__start_file@@YAXPEAUstbi__context@@PEAU_iobuf@@@Z DD imagerel ?stbi__start_file@@YAXPEAUstbi__context@@PEAU_iobuf@@@Z
	DD	imagerel ?stbi__start_file@@YAXPEAUstbi__context@@PEAU_iobuf@@@Z+41
	DD	imagerel $unwind$?stbi__start_file@@YAXPEAUstbi__context@@PEAU_iobuf@@@Z
$pdata$?stbi__jpeg_test@@YAHPEAUstbi__context@@@Z DD imagerel ?stbi__jpeg_test@@YAHPEAUstbi__context@@@Z
	DD	imagerel ?stbi__jpeg_test@@YAHPEAUstbi__context@@@Z+135
	DD	imagerel $unwind$?stbi__jpeg_test@@YAHPEAUstbi__context@@@Z
$pdata$?stbi__jpeg_load@@YAPEAXPEAUstbi__context@@PEAH11HPEAUstbi__result_info@@@Z DD imagerel ?stbi__jpeg_load@@YAPEAXPEAUstbi__context@@PEAH11HPEAUstbi__result_info@@@Z
	DD	imagerel ?stbi__jpeg_load@@YAPEAXPEAUstbi__context@@PEAH11HPEAUstbi__result_info@@@Z+190
	DD	imagerel $unwind$?stbi__jpeg_load@@YAPEAXPEAUstbi__context@@PEAH11HPEAUstbi__result_info@@@Z
$pdata$?stbi__jpeg_info@@YAHPEAUstbi__context@@PEAH11@Z DD imagerel ?stbi__jpeg_info@@YAHPEAUstbi__context@@PEAH11@Z
	DD	imagerel ?stbi__jpeg_info@@YAHPEAUstbi__context@@PEAH11@Z+140
	DD	imagerel $unwind$?stbi__jpeg_info@@YAHPEAUstbi__context@@PEAH11@Z
$pdata$?stbi__png_test@@YAHPEAUstbi__context@@@Z DD imagerel ?stbi__png_test@@YAHPEAUstbi__context@@@Z
	DD	imagerel ?stbi__png_test@@YAHPEAUstbi__context@@@Z+42
	DD	imagerel $unwind$?stbi__png_test@@YAHPEAUstbi__context@@@Z
$pdata$?stbi__png_load@@YAPEAXPEAUstbi__context@@PEAH11HPEAUstbi__result_info@@@Z DD imagerel ?stbi__png_load@@YAPEAXPEAUstbi__context@@PEAH11HPEAUstbi__result_info@@@Z
	DD	imagerel ?stbi__png_load@@YAPEAXPEAUstbi__context@@PEAH11HPEAUstbi__result_info@@@Z+94
	DD	imagerel $unwind$?stbi__png_load@@YAPEAXPEAUstbi__context@@PEAH11HPEAUstbi__result_info@@@Z
$pdata$?stbi__png_info@@YAHPEAUstbi__context@@PEAH11@Z DD imagerel ?stbi__png_info@@YAHPEAUstbi__context@@PEAH11@Z
	DD	imagerel ?stbi__png_info@@YAHPEAUstbi__context@@PEAH11@Z+64
	DD	imagerel $unwind$?stbi__png_info@@YAHPEAUstbi__context@@PEAH11@Z
$pdata$?stbi__png_is16@@YAHPEAUstbi__context@@@Z DD imagerel ?stbi__png_is16@@YAHPEAUstbi__context@@@Z
	DD	imagerel ?stbi__png_is16@@YAHPEAUstbi__context@@@Z+76
	DD	imagerel $unwind$?stbi__png_is16@@YAHPEAUstbi__context@@@Z
$pdata$?stbi__bmp_test@@YAHPEAUstbi__context@@@Z DD imagerel ?stbi__bmp_test@@YAHPEAUstbi__context@@@Z
	DD	imagerel ?stbi__bmp_test@@YAHPEAUstbi__context@@@Z+42
	DD	imagerel $unwind$?stbi__bmp_test@@YAHPEAUstbi__context@@@Z
$pdata$?stbi__bmp_load@@YAPEAXPEAUstbi__context@@PEAH11HPEAUstbi__result_info@@@Z DD imagerel ?stbi__bmp_load@@YAPEAXPEAUstbi__context@@PEAH11HPEAUstbi__result_info@@@Z
	DD	imagerel ?stbi__bmp_load@@YAPEAXPEAUstbi__context@@PEAH11HPEAUstbi__result_info@@@Z+4719
	DD	imagerel $unwind$?stbi__bmp_load@@YAPEAXPEAUstbi__context@@PEAH11HPEAUstbi__result_info@@@Z
$pdata$?stbi__bmp_info@@YAHPEAUstbi__context@@PEAH11@Z DD imagerel ?stbi__bmp_info@@YAHPEAUstbi__context@@PEAH11@Z
	DD	imagerel ?stbi__bmp_info@@YAHPEAUstbi__context@@PEAH11@Z+249
	DD	imagerel $unwind$?stbi__bmp_info@@YAHPEAUstbi__context@@PEAH11@Z
$pdata$?stbi__tga_test@@YAHPEAUstbi__context@@@Z DD imagerel ?stbi__tga_test@@YAHPEAUstbi__context@@@Z
	DD	imagerel ?stbi__tga_test@@YAHPEAUstbi__context@@@Z+402
	DD	imagerel $unwind$?stbi__tga_test@@YAHPEAUstbi__context@@@Z
$pdata$?stbi__tga_load@@YAPEAXPEAUstbi__context@@PEAH11HPEAUstbi__result_info@@@Z DD imagerel ?stbi__tga_load@@YAPEAXPEAUstbi__context@@PEAH11HPEAUstbi__result_info@@@Z
	DD	imagerel ?stbi__tga_load@@YAPEAXPEAUstbi__context@@PEAH11HPEAUstbi__result_info@@@Z+2679
	DD	imagerel $unwind$?stbi__tga_load@@YAPEAXPEAUstbi__context@@PEAH11HPEAUstbi__result_info@@@Z
$pdata$?stbi__tga_info@@YAHPEAUstbi__context@@PEAH11@Z DD imagerel ?stbi__tga_info@@YAHPEAUstbi__context@@PEAH11@Z
	DD	imagerel ?stbi__tga_info@@YAHPEAUstbi__context@@PEAH11@Z+612
	DD	imagerel $unwind$?stbi__tga_info@@YAHPEAUstbi__context@@PEAH11@Z
$pdata$?stbi__psd_test@@YAHPEAUstbi__context@@@Z DD imagerel ?stbi__psd_test@@YAHPEAUstbi__context@@@Z
	DD	imagerel ?stbi__psd_test@@YAHPEAUstbi__context@@@Z+71
	DD	imagerel $unwind$?stbi__psd_test@@YAHPEAUstbi__context@@@Z
$pdata$?stbi__psd_load@@YAPEAXPEAUstbi__context@@PEAH11HPEAUstbi__result_info@@H@Z DD imagerel ?stbi__psd_load@@YAPEAXPEAUstbi__context@@PEAH11HPEAUstbi__result_info@@H@Z
	DD	imagerel ?stbi__psd_load@@YAPEAXPEAUstbi__context@@PEAH11HPEAUstbi__result_info@@H@Z+2963
	DD	imagerel $unwind$?stbi__psd_load@@YAPEAXPEAUstbi__context@@PEAH11HPEAUstbi__result_info@@H@Z
$pdata$?stbi__psd_info@@YAHPEAUstbi__context@@PEAH11@Z DD imagerel ?stbi__psd_info@@YAHPEAUstbi__context@@PEAH11@Z
	DD	imagerel ?stbi__psd_info@@YAHPEAUstbi__context@@PEAH11@Z+327
	DD	imagerel $unwind$?stbi__psd_info@@YAHPEAUstbi__context@@PEAH11@Z
$pdata$?stbi__psd_is16@@YAHPEAUstbi__context@@@Z DD imagerel ?stbi__psd_is16@@YAHPEAUstbi__context@@@Z
	DD	imagerel ?stbi__psd_is16@@YAHPEAUstbi__context@@@Z+194
	DD	imagerel $unwind$?stbi__psd_is16@@YAHPEAUstbi__context@@@Z
$pdata$?stbi__hdr_test@@YAHPEAUstbi__context@@@Z DD imagerel ?stbi__hdr_test@@YAHPEAUstbi__context@@@Z
	DD	imagerel ?stbi__hdr_test@@YAHPEAUstbi__context@@@Z+87
	DD	imagerel $unwind$?stbi__hdr_test@@YAHPEAUstbi__context@@@Z
$pdata$?stbi__hdr_load@@YAPEAMPEAUstbi__context@@PEAH11HPEAUstbi__result_info@@@Z DD imagerel ?stbi__hdr_load@@YAPEAMPEAUstbi__context@@PEAH11HPEAUstbi__result_info@@@Z
	DD	imagerel ?stbi__hdr_load@@YAPEAMPEAUstbi__context@@PEAH11HPEAUstbi__result_info@@@Z+2341
	DD	imagerel $unwind$?stbi__hdr_load@@YAPEAMPEAUstbi__context@@PEAH11HPEAUstbi__result_info@@@Z
$pdata$?stbi__hdr_info@@YAHPEAUstbi__context@@PEAH11@Z DD imagerel ?stbi__hdr_info@@YAHPEAUstbi__context@@PEAH11@Z
	DD	imagerel ?stbi__hdr_info@@YAHPEAUstbi__context@@PEAH11@Z+539
	DD	imagerel $unwind$?stbi__hdr_info@@YAHPEAUstbi__context@@PEAH11@Z
$pdata$?stbi__pic_test@@YAHPEAUstbi__context@@@Z DD imagerel ?stbi__pic_test@@YAHPEAUstbi__context@@@Z
	DD	imagerel ?stbi__pic_test@@YAHPEAUstbi__context@@@Z+42
	DD	imagerel $unwind$?stbi__pic_test@@YAHPEAUstbi__context@@@Z
$pdata$?stbi__pic_load@@YAPEAXPEAUstbi__context@@PEAH11HPEAUstbi__result_info@@@Z DD imagerel ?stbi__pic_load@@YAPEAXPEAUstbi__context@@PEAH11HPEAUstbi__result_info@@@Z
	DD	imagerel ?stbi__pic_load@@YAPEAXPEAUstbi__context@@PEAH11HPEAUstbi__result_info@@@Z+656
	DD	imagerel $unwind$?stbi__pic_load@@YAPEAXPEAUstbi__context@@PEAH11HPEAUstbi__result_info@@@Z
$pdata$?stbi__pic_info@@YAHPEAUstbi__context@@PEAH11@Z DD imagerel ?stbi__pic_info@@YAHPEAUstbi__context@@PEAH11@Z
	DD	imagerel ?stbi__pic_info@@YAHPEAUstbi__context@@PEAH11@Z+642
	DD	imagerel $unwind$?stbi__pic_info@@YAHPEAUstbi__context@@PEAH11@Z
$pdata$?stbi__gif_test@@YAHPEAUstbi__context@@@Z DD imagerel ?stbi__gif_test@@YAHPEAUstbi__context@@@Z
	DD	imagerel ?stbi__gif_test@@YAHPEAUstbi__context@@@Z+42
	DD	imagerel $unwind$?stbi__gif_test@@YAHPEAUstbi__context@@@Z
$pdata$?stbi__gif_load@@YAPEAXPEAUstbi__context@@PEAH11HPEAUstbi__result_info@@@Z DD imagerel ?stbi__gif_load@@YAPEAXPEAUstbi__context@@PEAH11HPEAUstbi__result_info@@@Z
	DD	imagerel ?stbi__gif_load@@YAPEAXPEAUstbi__context@@PEAH11HPEAUstbi__result_info@@@Z+316
	DD	imagerel $unwind$?stbi__gif_load@@YAPEAXPEAUstbi__context@@PEAH11HPEAUstbi__result_info@@@Z
$pdata$?stbi__load_gif_main@@YAPEAXPEAUstbi__context@@PEAPEAHPEAH222H@Z DD imagerel ?stbi__load_gif_main@@YAPEAXPEAUstbi__context@@PEAPEAHPEAH222H@Z
	DD	imagerel ?stbi__load_gif_main@@YAPEAXPEAUstbi__context@@PEAPEAHPEAH222H@Z+1005
	DD	imagerel $unwind$?stbi__load_gif_main@@YAPEAXPEAUstbi__context@@PEAPEAHPEAH222H@Z
$pdata$?stbi__gif_info@@YAHPEAUstbi__context@@PEAH11@Z DD imagerel ?stbi__gif_info@@YAHPEAUstbi__context@@PEAH11@Z
	DD	imagerel ?stbi__gif_info@@YAHPEAUstbi__context@@PEAH11@Z+54
	DD	imagerel $unwind$?stbi__gif_info@@YAHPEAUstbi__context@@PEAH11@Z
$pdata$?stbi__pnm_test@@YAHPEAUstbi__context@@@Z DD imagerel ?stbi__pnm_test@@YAHPEAUstbi__context@@@Z
	DD	imagerel ?stbi__pnm_test@@YAHPEAUstbi__context@@@Z+91
	DD	imagerel $unwind$?stbi__pnm_test@@YAHPEAUstbi__context@@@Z
$pdata$?stbi__pnm_load@@YAPEAXPEAUstbi__context@@PEAH11HPEAUstbi__result_info@@@Z DD imagerel ?stbi__pnm_load@@YAPEAXPEAUstbi__context@@PEAH11HPEAUstbi__result_info@@@Z
	DD	imagerel ?stbi__pnm_load@@YAPEAXPEAUstbi__context@@PEAH11HPEAUstbi__result_info@@@Z+793
	DD	imagerel $unwind$?stbi__pnm_load@@YAPEAXPEAUstbi__context@@PEAH11HPEAUstbi__result_info@@@Z
$pdata$?stbi__pnm_info@@YAHPEAUstbi__context@@PEAH11@Z DD imagerel ?stbi__pnm_info@@YAHPEAUstbi__context@@PEAH11@Z
	DD	imagerel ?stbi__pnm_info@@YAHPEAUstbi__context@@PEAH11@Z+430
	DD	imagerel $unwind$?stbi__pnm_info@@YAHPEAUstbi__context@@PEAH11@Z
$pdata$?stbi__pnm_is16@@YAHPEAUstbi__context@@@Z DD imagerel ?stbi__pnm_is16@@YAHPEAUstbi__context@@@Z
	DD	imagerel ?stbi__pnm_is16@@YAHPEAUstbi__context@@@Z+46
	DD	imagerel $unwind$?stbi__pnm_is16@@YAHPEAUstbi__context@@@Z
$pdata$?stbi__malloc@@YAPEAX_K@Z DD imagerel ?stbi__malloc@@YAPEAX_K@Z
	DD	imagerel ?stbi__malloc@@YAPEAX_K@Z+24
	DD	imagerel $unwind$?stbi__malloc@@YAPEAX_K@Z
$pdata$?stbi__addsizes_valid@@YAHHH@Z DD imagerel ?stbi__addsizes_valid@@YAHHH@Z
	DD	imagerel ?stbi__addsizes_valid@@YAHHH@Z+62
	DD	imagerel $unwind$?stbi__addsizes_valid@@YAHHH@Z
$pdata$?stbi__mul2sizes_valid@@YAHHH@Z DD imagerel ?stbi__mul2sizes_valid@@YAHHH@Z
	DD	imagerel ?stbi__mul2sizes_valid@@YAHHH@Z+84
	DD	imagerel $unwind$?stbi__mul2sizes_valid@@YAHHH@Z
$pdata$?stbi__mad2sizes_valid@@YAHHHH@Z DD imagerel ?stbi__mad2sizes_valid@@YAHHHH@Z
	DD	imagerel ?stbi__mad2sizes_valid@@YAHHHH@Z+85
	DD	imagerel $unwind$?stbi__mad2sizes_valid@@YAHHHH@Z
$pdata$?stbi__mad3sizes_valid@@YAHHHHH@Z DD imagerel ?stbi__mad3sizes_valid@@YAHHHHH@Z
	DD	imagerel ?stbi__mad3sizes_valid@@YAHHHHH@Z+119
	DD	imagerel $unwind$?stbi__mad3sizes_valid@@YAHHHHH@Z
$pdata$?stbi__mad4sizes_valid@@YAHHHHHH@Z DD imagerel ?stbi__mad4sizes_valid@@YAHHHHHH@Z
	DD	imagerel ?stbi__mad4sizes_valid@@YAHHHHHH@Z+153
	DD	imagerel $unwind$?stbi__mad4sizes_valid@@YAHHHHHH@Z
$pdata$?stbi__malloc_mad2@@YAPEAXHHH@Z DD imagerel ?stbi__malloc_mad2@@YAPEAXHHH@Z
	DD	imagerel ?stbi__malloc_mad2@@YAPEAXHHH@Z+71
	DD	imagerel $unwind$?stbi__malloc_mad2@@YAPEAXHHH@Z
$pdata$?stbi__malloc_mad3@@YAPEAXHHHH@Z DD imagerel ?stbi__malloc_mad3@@YAPEAXHHHH@Z
	DD	imagerel ?stbi__malloc_mad3@@YAPEAXHHHH@Z+86
	DD	imagerel $unwind$?stbi__malloc_mad3@@YAPEAXHHHH@Z
$pdata$?stbi__malloc_mad4@@YAPEAXHHHHH@Z DD imagerel ?stbi__malloc_mad4@@YAPEAXHHHHH@Z
	DD	imagerel ?stbi__malloc_mad4@@YAPEAXHHHHH@Z+99
	DD	imagerel $unwind$?stbi__malloc_mad4@@YAPEAXHHHHH@Z
$pdata$?stbi__addints_valid@@YAHHH@Z DD imagerel ?stbi__addints_valid@@YAHHH@Z
	DD	imagerel ?stbi__addints_valid@@YAHHH@Z+171
	DD	imagerel $unwind$?stbi__addints_valid@@YAHHH@Z
$pdata$?stbi__mul2shorts_valid@@YAHHH@Z DD imagerel ?stbi__mul2shorts_valid@@YAHHH@Z
	DD	imagerel ?stbi__mul2shorts_valid@@YAHHH@Z+223
	DD	imagerel $unwind$?stbi__mul2shorts_valid@@YAHHH@Z
$pdata$?stbi__ldr_to_hdr@@YAPEAMPEAEHHH@Z DD imagerel ?stbi__ldr_to_hdr@@YAPEAMPEAEHHH@Z
	DD	imagerel ?stbi__ldr_to_hdr@@YAPEAMPEAEHHH@Z+450
	DD	imagerel $unwind$?stbi__ldr_to_hdr@@YAPEAMPEAEHHH@Z
$pdata$?stbi__hdr_to_ldr@@YAPEAEPEAMHHH@Z DD imagerel ?stbi__hdr_to_ldr@@YAPEAEPEAMHHH@Z
	DD	imagerel ?stbi__hdr_to_ldr@@YAPEAEPEAMHHH@Z+541
	DD	imagerel $unwind$?stbi__hdr_to_ldr@@YAPEAEPEAMHHH@Z
$pdata$?stbi__load_main@@YAPEAXPEAUstbi__context@@PEAH11HPEAUstbi__result_info@@H@Z DD imagerel ?stbi__load_main@@YAPEAXPEAUstbi__context@@PEAH11HPEAUstbi__result_info@@H@Z
	DD	imagerel ?stbi__load_main@@YAPEAXPEAUstbi__context@@PEAH11HPEAUstbi__result_info@@H@Z+819
	DD	imagerel $unwind$?stbi__load_main@@YAPEAXPEAUstbi__context@@PEAH11HPEAUstbi__result_info@@H@Z
$pdata$?stbi__convert_16_to_8@@YAPEAEPEAGHHH@Z DD imagerel ?stbi__convert_16_to_8@@YAPEAEPEAGHHH@Z
	DD	imagerel ?stbi__convert_16_to_8@@YAPEAEPEAGHHH@Z+195
	DD	imagerel $unwind$?stbi__convert_16_to_8@@YAPEAEPEAGHHH@Z
$pdata$?stbi__convert_8_to_16@@YAPEAGPEAEHHH@Z DD imagerel ?stbi__convert_8_to_16@@YAPEAGPEAEHHH@Z
	DD	imagerel ?stbi__convert_8_to_16@@YAPEAGPEAEHHH@Z+210
	DD	imagerel $unwind$?stbi__convert_8_to_16@@YAPEAGPEAEHHH@Z
$pdata$?stbi__vertical_flip@@YAXPEAXHHH@Z DD imagerel ?stbi__vertical_flip@@YAXPEAXHHH@Z
	DD	imagerel ?stbi__vertical_flip@@YAXPEAXHHH@Z+410
	DD	imagerel $unwind$?stbi__vertical_flip@@YAXPEAXHHH@Z
$pdata$?stbi__vertical_flip_slices@@YAXPEAXHHHH@Z DD imagerel ?stbi__vertical_flip_slices@@YAXPEAXHHHH@Z
	DD	imagerel ?stbi__vertical_flip_slices@@YAXPEAXHHHH@Z+133
	DD	imagerel $unwind$?stbi__vertical_flip_slices@@YAXPEAXHHHH@Z
$pdata$?stbi__load_and_postprocess_8bit@@YAPEAEPEAUstbi__context@@PEAH11H@Z DD imagerel ?stbi__load_and_postprocess_8bit@@YAPEAEPEAUstbi__context@@PEAH11H@Z
	DD	imagerel ?stbi__load_and_postprocess_8bit@@YAPEAEPEAUstbi__context@@PEAH11H@Z+453
	DD	imagerel $unwind$?stbi__load_and_postprocess_8bit@@YAPEAEPEAUstbi__context@@PEAH11H@Z
$pdata$?stbi__load_and_postprocess_16bit@@YAPEAGPEAUstbi__context@@PEAH11H@Z DD imagerel ?stbi__load_and_postprocess_16bit@@YAPEAGPEAUstbi__context@@PEAH11H@Z
	DD	imagerel ?stbi__load_and_postprocess_16bit@@YAPEAGPEAUstbi__context@@PEAH11H@Z+459
	DD	imagerel $unwind$?stbi__load_and_postprocess_16bit@@YAPEAGPEAUstbi__context@@PEAH11H@Z
$pdata$?stbi__float_postprocess@@YAXPEAMPEAH11H@Z DD imagerel ?stbi__float_postprocess@@YAXPEAMPEAH11H@Z
	DD	imagerel ?stbi__float_postprocess@@YAXPEAMPEAH11H@Z+194
	DD	imagerel $unwind$?stbi__float_postprocess@@YAXPEAMPEAH11H@Z
$pdata$?stbi__fopen@@YAPEAU_iobuf@@PEBD0@Z DD imagerel ?stbi__fopen@@YAPEAU_iobuf@@PEBD0@Z
	DD	imagerel ?stbi__fopen@@YAPEAU_iobuf@@PEBD0@Z+57
	DD	imagerel $unwind$?stbi__fopen@@YAPEAU_iobuf@@PEBD0@Z
$pdata$?stbi__loadf_main@@YAPEAMPEAUstbi__context@@PEAH11H@Z DD imagerel ?stbi__loadf_main@@YAPEAMPEAUstbi__context@@PEAH11H@Z
	DD	imagerel ?stbi__loadf_main@@YAPEAMPEAUstbi__context@@PEAH11H@Z+354
	DD	imagerel $unwind$?stbi__loadf_main@@YAPEAMPEAUstbi__context@@PEAH11H@Z
$pdata$?stbi__get8@@YAEPEAUstbi__context@@@Z DD imagerel ?stbi__get8@@YAEPEAUstbi__context@@@Z
	DD	imagerel ?stbi__get8@@YAEPEAUstbi__context@@@Z+169
	DD	imagerel $unwind$?stbi__get8@@YAEPEAUstbi__context@@@Z
$pdata$?stbi__at_eof@@YAHPEAUstbi__context@@@Z DD imagerel ?stbi__at_eof@@YAHPEAUstbi__context@@@Z
	DD	imagerel ?stbi__at_eof@@YAHPEAUstbi__context@@@Z+117
	DD	imagerel $unwind$?stbi__at_eof@@YAHPEAUstbi__context@@@Z
$pdata$?stbi__skip@@YAXPEAUstbi__context@@H@Z DD imagerel ?stbi__skip@@YAXPEAUstbi__context@@H@Z
	DD	imagerel ?stbi__skip@@YAXPEAUstbi__context@@H@Z+205
	DD	imagerel $unwind$?stbi__skip@@YAXPEAUstbi__context@@H@Z
$pdata$?stbi__getn@@YAHPEAUstbi__context@@PEAEH@Z DD imagerel ?stbi__getn@@YAHPEAUstbi__context@@PEAEH@Z
	DD	imagerel ?stbi__getn@@YAHPEAUstbi__context@@PEAEH@Z+345
	DD	imagerel $unwind$?stbi__getn@@YAHPEAUstbi__context@@PEAEH@Z
$pdata$?stbi__get16be@@YAHPEAUstbi__context@@@Z DD imagerel ?stbi__get16be@@YAHPEAUstbi__context@@@Z
	DD	imagerel ?stbi__get16be@@YAHPEAUstbi__context@@@Z+63
	DD	imagerel $unwind$?stbi__get16be@@YAHPEAUstbi__context@@@Z
$pdata$?stbi__get32be@@YAIPEAUstbi__context@@@Z DD imagerel ?stbi__get32be@@YAIPEAUstbi__context@@@Z
	DD	imagerel ?stbi__get32be@@YAIPEAUstbi__context@@@Z+57
	DD	imagerel $unwind$?stbi__get32be@@YAIPEAUstbi__context@@@Z
$pdata$?stbi__get16le@@YAHPEAUstbi__context@@@Z DD imagerel ?stbi__get16le@@YAHPEAUstbi__context@@@Z
	DD	imagerel ?stbi__get16le@@YAHPEAUstbi__context@@@Z+55
	DD	imagerel $unwind$?stbi__get16le@@YAHPEAUstbi__context@@@Z
$pdata$?stbi__get32le@@YAIPEAUstbi__context@@@Z DD imagerel ?stbi__get32le@@YAIPEAUstbi__context@@@Z
	DD	imagerel ?stbi__get32le@@YAIPEAUstbi__context@@@Z+57
	DD	imagerel $unwind$?stbi__get32le@@YAIPEAUstbi__context@@@Z
$pdata$?stbi__convert_format@@YAPEAEPEAEHHII@Z DD imagerel ?stbi__convert_format@@YAPEAEPEAEHHII@Z
	DD	imagerel ?stbi__convert_format@@YAPEAEPEAEHHII@Z+2660
	DD	imagerel $unwind$?stbi__convert_format@@YAPEAEPEAEHHII@Z
$pdata$?stbi__convert_format16@@YAPEAGPEAGHHII@Z DD imagerel ?stbi__convert_format16@@YAPEAGPEAGHHII@Z
	DD	imagerel ?stbi__convert_format16@@YAPEAGPEAGHHII@Z+2712
	DD	imagerel $unwind$?stbi__convert_format16@@YAPEAGPEAGHHII@Z
$pdata$?stbi__build_huffman@@YAHPEAUstbi__huffman@@PEAH@Z DD imagerel ?stbi__build_huffman@@YAHPEAUstbi__huffman@@PEAH@Z
	DD	imagerel ?stbi__build_huffman@@YAHPEAUstbi__huffman@@PEAH@Z+675
	DD	imagerel $unwind$?stbi__build_huffman@@YAHPEAUstbi__huffman@@PEAH@Z
$pdata$?stbi__build_fast_ac@@YAXPEAFPEAUstbi__huffman@@@Z DD imagerel ?stbi__build_fast_ac@@YAXPEAFPEAUstbi__huffman@@@Z
	DD	imagerel ?stbi__build_fast_ac@@YAXPEAFPEAUstbi__huffman@@@Z+367
	DD	imagerel $unwind$?stbi__build_fast_ac@@YAXPEAFPEAUstbi__huffman@@@Z
$pdata$?stbi__grow_buffer_unsafe@@YAXPEAUstbi__jpeg@@@Z DD imagerel ?stbi__grow_buffer_unsafe@@YAXPEAUstbi__jpeg@@@Z
	DD	imagerel ?stbi__grow_buffer_unsafe@@YAXPEAUstbi__jpeg@@@Z+264
	DD	imagerel $unwind$?stbi__grow_buffer_unsafe@@YAXPEAUstbi__jpeg@@@Z
$pdata$?stbi__jpeg_huff_decode@@YAHPEAUstbi__jpeg@@PEAUstbi__huffman@@@Z DD imagerel ?stbi__jpeg_huff_decode@@YAHPEAUstbi__jpeg@@PEAUstbi__huffman@@@Z
	DD	imagerel ?stbi__jpeg_huff_decode@@YAHPEAUstbi__jpeg@@PEAUstbi__huffman@@@Z+688
	DD	imagerel $unwind$?stbi__jpeg_huff_decode@@YAHPEAUstbi__jpeg@@PEAUstbi__huffman@@@Z
$pdata$?stbi__extend_receive@@YAHPEAUstbi__jpeg@@H@Z DD imagerel ?stbi__extend_receive@@YAHPEAUstbi__jpeg@@H@Z
	DD	imagerel ?stbi__extend_receive@@YAHPEAUstbi__jpeg@@H@Z+233
	DD	imagerel $unwind$?stbi__extend_receive@@YAHPEAUstbi__jpeg@@H@Z
$pdata$?stbi__jpeg_get_bits@@YAHPEAUstbi__jpeg@@H@Z DD imagerel ?stbi__jpeg_get_bits@@YAHPEAUstbi__jpeg@@H@Z
	DD	imagerel ?stbi__jpeg_get_bits@@YAHPEAUstbi__jpeg@@H@Z+185
	DD	imagerel $unwind$?stbi__jpeg_get_bits@@YAHPEAUstbi__jpeg@@H@Z
$pdata$?stbi__jpeg_get_bit@@YAHPEAUstbi__jpeg@@@Z DD imagerel ?stbi__jpeg_get_bit@@YAHPEAUstbi__jpeg@@@Z
	DD	imagerel ?stbi__jpeg_get_bit@@YAHPEAUstbi__jpeg@@@Z+128
	DD	imagerel $unwind$?stbi__jpeg_get_bit@@YAHPEAUstbi__jpeg@@@Z
$pdata$?stbi__jpeg_decode_block@@YAHPEAUstbi__jpeg@@QEAFPEAUstbi__huffman@@2PEAFHPEAG@Z DD imagerel ?stbi__jpeg_decode_block@@YAHPEAUstbi__jpeg@@QEAFPEAUstbi__huffman@@2PEAFHPEAG@Z
	DD	imagerel ?stbi__jpeg_decode_block@@YAHPEAUstbi__jpeg@@QEAFPEAUstbi__huffman@@2PEAFHPEAG@Z+881
	DD	imagerel $unwind$?stbi__jpeg_decode_block@@YAHPEAUstbi__jpeg@@QEAFPEAUstbi__huffman@@2PEAFHPEAG@Z
$pdata$?stbi__jpeg_decode_block_prog_dc@@YAHPEAUstbi__jpeg@@QEAFPEAUstbi__huffman@@H@Z DD imagerel ?stbi__jpeg_decode_block_prog_dc@@YAHPEAUstbi__jpeg@@QEAFPEAUstbi__huffman@@H@Z
	DD	imagerel ?stbi__jpeg_decode_block_prog_dc@@YAHPEAUstbi__jpeg@@QEAFPEAUstbi__huffman@@H@Z+517
	DD	imagerel $unwind$?stbi__jpeg_decode_block_prog_dc@@YAHPEAUstbi__jpeg@@QEAFPEAUstbi__huffman@@H@Z
$pdata$?stbi__jpeg_decode_block_prog_ac@@YAHPEAUstbi__jpeg@@QEAFPEAUstbi__huffman@@PEAF@Z DD imagerel ?stbi__jpeg_decode_block_prog_ac@@YAHPEAUstbi__jpeg@@QEAFPEAUstbi__huffman@@PEAF@Z
	DD	imagerel ?stbi__jpeg_decode_block_prog_ac@@YAHPEAUstbi__jpeg@@QEAFPEAUstbi__huffman@@PEAF@Z+1655
	DD	imagerel $unwind$?stbi__jpeg_decode_block_prog_ac@@YAHPEAUstbi__jpeg@@QEAFPEAUstbi__huffman@@PEAF@Z
$pdata$?stbi__idct_block@@YAXPEAEHQEAF@Z DD imagerel ?stbi__idct_block@@YAXPEAEHQEAF@Z
	DD	imagerel ?stbi__idct_block@@YAXPEAEHQEAF@Z+2715
	DD	imagerel $unwind$?stbi__idct_block@@YAXPEAEHQEAF@Z
$pdata$?stbi__idct_simd@@YAXPEAEHQEAF@Z DD imagerel ?stbi__idct_simd@@YAXPEAEHQEAF@Z
	DD	imagerel ?stbi__idct_simd@@YAXPEAEHQEAF@Z+11018
	DD	imagerel $unwind$?stbi__idct_simd@@YAXPEAEHQEAF@Z
$pdata$?stbi__get_marker@@YAEPEAUstbi__jpeg@@@Z DD imagerel ?stbi__get_marker@@YAEPEAUstbi__jpeg@@@Z
	DD	imagerel ?stbi__get_marker@@YAEPEAUstbi__jpeg@@@Z+137
	DD	imagerel $unwind$?stbi__get_marker@@YAEPEAUstbi__jpeg@@@Z
$pdata$?stbi__jpeg_reset@@YAXPEAUstbi__jpeg@@@Z DD imagerel ?stbi__jpeg_reset@@YAXPEAUstbi__jpeg@@@Z
	DD	imagerel ?stbi__jpeg_reset@@YAXPEAUstbi__jpeg@@@Z+237
	DD	imagerel $unwind$?stbi__jpeg_reset@@YAXPEAUstbi__jpeg@@@Z
$pdata$?stbi__parse_entropy_coded_data@@YAHPEAUstbi__jpeg@@@Z DD imagerel ?stbi__parse_entropy_coded_data@@YAHPEAUstbi__jpeg@@@Z
	DD	imagerel ?stbi__parse_entropy_coded_data@@YAHPEAUstbi__jpeg@@@Z+3156
	DD	imagerel $unwind$?stbi__parse_entropy_coded_data@@YAHPEAUstbi__jpeg@@@Z
$pdata$?stbi__jpeg_dequantize@@YAXPEAFPEAG@Z DD imagerel ?stbi__jpeg_dequantize@@YAXPEAFPEAG@Z
	DD	imagerel ?stbi__jpeg_dequantize@@YAXPEAFPEAG@Z+86
	DD	imagerel $unwind$?stbi__jpeg_dequantize@@YAXPEAFPEAG@Z
$pdata$?stbi__jpeg_finish@@YAXPEAUstbi__jpeg@@@Z DD imagerel ?stbi__jpeg_finish@@YAXPEAUstbi__jpeg@@@Z
	DD	imagerel ?stbi__jpeg_finish@@YAXPEAUstbi__jpeg@@@Z+457
	DD	imagerel $unwind$?stbi__jpeg_finish@@YAXPEAUstbi__jpeg@@@Z
$pdata$?stbi__process_marker@@YAHPEAUstbi__jpeg@@H@Z DD imagerel ?stbi__process_marker@@YAHPEAUstbi__jpeg@@H@Z
	DD	imagerel ?stbi__process_marker@@YAHPEAUstbi__jpeg@@H@Z+1743
	DD	imagerel $unwind$?stbi__process_marker@@YAHPEAUstbi__jpeg@@H@Z
$pdata$?stbi__process_scan_header@@YAHPEAUstbi__jpeg@@@Z DD imagerel ?stbi__process_scan_header@@YAHPEAUstbi__jpeg@@@Z
	DD	imagerel ?stbi__process_scan_header@@YAHPEAUstbi__jpeg@@@Z+812
	DD	imagerel $unwind$?stbi__process_scan_header@@YAHPEAUstbi__jpeg@@@Z
$pdata$?stbi__free_jpeg_components@@YAHPEAUstbi__jpeg@@HH@Z DD imagerel ?stbi__free_jpeg_components@@YAHPEAUstbi__jpeg@@HH@Z
	DD	imagerel ?stbi__free_jpeg_components@@YAHPEAUstbi__jpeg@@HH@Z+352
	DD	imagerel $unwind$?stbi__free_jpeg_components@@YAHPEAUstbi__jpeg@@HH@Z
$pdata$?stbi__process_frame_header@@YAHPEAUstbi__jpeg@@H@Z DD imagerel ?stbi__process_frame_header@@YAHPEAUstbi__jpeg@@H@Z
	DD	imagerel ?stbi__process_frame_header@@YAHPEAUstbi__jpeg@@H@Z+2318
	DD	imagerel $unwind$?stbi__process_frame_header@@YAHPEAUstbi__jpeg@@H@Z
$pdata$?stbi__decode_jpeg_header@@YAHPEAUstbi__jpeg@@H@Z DD imagerel ?stbi__decode_jpeg_header@@YAHPEAUstbi__jpeg@@H@Z
	DD	imagerel ?stbi__decode_jpeg_header@@YAHPEAUstbi__jpeg@@H@Z+345
	DD	imagerel $unwind$?stbi__decode_jpeg_header@@YAHPEAUstbi__jpeg@@H@Z
$pdata$?stbi__skip_jpeg_junk_at_end@@YAEPEAUstbi__jpeg@@@Z DD imagerel ?stbi__skip_jpeg_junk_at_end@@YAEPEAUstbi__jpeg@@@Z
	DD	imagerel ?stbi__skip_jpeg_junk_at_end@@YAEPEAUstbi__jpeg@@@Z+132
	DD	imagerel $unwind$?stbi__skip_jpeg_junk_at_end@@YAEPEAUstbi__jpeg@@@Z
$pdata$?stbi__decode_jpeg_image@@YAHPEAUstbi__jpeg@@@Z DD imagerel ?stbi__decode_jpeg_image@@YAHPEAUstbi__jpeg@@@Z
	DD	imagerel ?stbi__decode_jpeg_image@@YAHPEAUstbi__jpeg@@@Z+510
	DD	imagerel $unwind$?stbi__decode_jpeg_image@@YAHPEAUstbi__jpeg@@@Z
$pdata$?stbi__resample_row_v_2@@YAPEAEPEAE00HH@Z DD imagerel ?stbi__resample_row_v_2@@YAPEAEPEAE00HH@Z
	DD	imagerel ?stbi__resample_row_v_2@@YAPEAEPEAE00HH@Z+110
	DD	imagerel $unwind$?stbi__resample_row_v_2@@YAPEAEPEAE00HH@Z
$pdata$?stbi__resample_row_h_2@@YAPEAEPEAE00HH@Z DD imagerel ?stbi__resample_row_h_2@@YAPEAEPEAE00HH@Z
	DD	imagerel ?stbi__resample_row_h_2@@YAPEAEPEAE00HH@Z+474
	DD	imagerel $unwind$?stbi__resample_row_h_2@@YAPEAEPEAE00HH@Z
$pdata$?stbi__resample_row_hv_2@@YAPEAEPEAE00HH@Z DD imagerel ?stbi__resample_row_hv_2@@YAPEAEPEAE00HH@Z
	DD	imagerel ?stbi__resample_row_hv_2@@YAPEAEPEAE00HH@Z+383
	DD	imagerel $unwind$?stbi__resample_row_hv_2@@YAPEAEPEAE00HH@Z
$pdata$?stbi__resample_row_hv_2_simd@@YAPEAEPEAE00HH@Z DD imagerel ?stbi__resample_row_hv_2_simd@@YAPEAEPEAE00HH@Z
	DD	imagerel ?stbi__resample_row_hv_2_simd@@YAPEAEPEAE00HH@Z+1637
	DD	imagerel $unwind$?stbi__resample_row_hv_2_simd@@YAPEAEPEAE00HH@Z
$pdata$?stbi__resample_row_generic@@YAPEAEPEAE00HH@Z DD imagerel ?stbi__resample_row_generic@@YAPEAEPEAE00HH@Z
	DD	imagerel ?stbi__resample_row_generic@@YAPEAEPEAE00HH@Z+131
	DD	imagerel $unwind$?stbi__resample_row_generic@@YAPEAEPEAE00HH@Z
$pdata$?stbi__YCbCr_to_RGB_row@@YAXPEAEPEBE11HH@Z DD imagerel ?stbi__YCbCr_to_RGB_row@@YAXPEAEPEBE11HH@Z
	DD	imagerel ?stbi__YCbCr_to_RGB_row@@YAXPEAEPEBE11HH@Z+451
	DD	imagerel $unwind$?stbi__YCbCr_to_RGB_row@@YAXPEAEPEBE11HH@Z
$pdata$?stbi__YCbCr_to_RGB_simd@@YAXPEAEPEBE11HH@Z DD imagerel ?stbi__YCbCr_to_RGB_simd@@YAXPEAEPEBE11HH@Z
	DD	imagerel ?stbi__YCbCr_to_RGB_simd@@YAXPEAEPEBE11HH@Z+1986
	DD	imagerel $unwind$?stbi__YCbCr_to_RGB_simd@@YAXPEAEPEBE11HH@Z
$pdata$?stbi__setup_jpeg@@YAXPEAUstbi__jpeg@@@Z DD imagerel ?stbi__setup_jpeg@@YAXPEAUstbi__jpeg@@@Z
	DD	imagerel ?stbi__setup_jpeg@@YAXPEAUstbi__jpeg@@@Z+137
	DD	imagerel $unwind$?stbi__setup_jpeg@@YAXPEAUstbi__jpeg@@@Z
$pdata$?stbi__cleanup_jpeg@@YAXPEAUstbi__jpeg@@@Z DD imagerel ?stbi__cleanup_jpeg@@YAXPEAUstbi__jpeg@@@Z
	DD	imagerel ?stbi__cleanup_jpeg@@YAXPEAUstbi__jpeg@@@Z+38
	DD	imagerel $unwind$?stbi__cleanup_jpeg@@YAXPEAUstbi__jpeg@@@Z
$pdata$?stbi__blinn_8x8@@YAEEE@Z DD imagerel ?stbi__blinn_8x8@@YAEEE@Z
	DD	imagerel ?stbi__blinn_8x8@@YAEEE@Z+54
	DD	imagerel $unwind$?stbi__blinn_8x8@@YAEEE@Z
$pdata$?load_jpeg_image@@YAPEAEPEAUstbi__jpeg@@PEAH11H@Z DD imagerel ?load_jpeg_image@@YAPEAEPEAUstbi__jpeg@@PEAH11H@Z
	DD	imagerel ?load_jpeg_image@@YAPEAEPEAUstbi__jpeg@@PEAH11H@Z+4514
	DD	imagerel $unwind$?load_jpeg_image@@YAPEAEPEAUstbi__jpeg@@PEAH11H@Z
$pdata$?stbi__jpeg_info_raw@@YAHPEAUstbi__jpeg@@PEAH11@Z DD imagerel ?stbi__jpeg_info_raw@@YAHPEAUstbi__jpeg@@PEAH11@Z
	DD	imagerel ?stbi__jpeg_info_raw@@YAHPEAUstbi__jpeg@@PEAH11@Z+172
	DD	imagerel $unwind$?stbi__jpeg_info_raw@@YAHPEAUstbi__jpeg@@PEAH11@Z
$pdata$?stbi__bit_reverse@@YAHHH@Z DD imagerel ?stbi__bit_reverse@@YAHHH@Z
	DD	imagerel ?stbi__bit_reverse@@YAHHH@Z+71
	DD	imagerel $unwind$?stbi__bit_reverse@@YAHHH@Z
$pdata$?stbi__zbuild_huffman@@YAHPEAUstbi__zhuffman@@PEBEH@Z DD imagerel ?stbi__zbuild_huffman@@YAHPEAUstbi__zhuffman@@PEBEH@Z
	DD	imagerel ?stbi__zbuild_huffman@@YAHPEAUstbi__zhuffman@@PEBEH@Z+896
	DD	imagerel $unwind$?stbi__zbuild_huffman@@YAHPEAUstbi__zhuffman@@PEBEH@Z
$pdata$?stbi__zeof@@YAHPEAUstbi__zbuf@@@Z DD imagerel ?stbi__zeof@@YAHPEAUstbi__zbuf@@@Z
	DD	imagerel ?stbi__zeof@@YAHPEAUstbi__zbuf@@@Z+52
	DD	imagerel $unwind$?stbi__zeof@@YAHPEAUstbi__zbuf@@@Z
$pdata$?stbi__zget8@@YAEPEAUstbi__zbuf@@@Z DD imagerel ?stbi__zget8@@YAEPEAUstbi__zbuf@@@Z
	DD	imagerel ?stbi__zget8@@YAEPEAUstbi__zbuf@@@Z+77
	DD	imagerel $unwind$?stbi__zget8@@YAEPEAUstbi__zbuf@@@Z
$pdata$?stbi__fill_bits@@YAXPEAUstbi__zbuf@@@Z DD imagerel ?stbi__fill_bits@@YAXPEAUstbi__zbuf@@@Z
	DD	imagerel ?stbi__fill_bits@@YAXPEAUstbi__zbuf@@@Z+142
	DD	imagerel $unwind$?stbi__fill_bits@@YAXPEAUstbi__zbuf@@@Z
$pdata$?stbi__zreceive@@YAIPEAUstbi__zbuf@@H@Z DD imagerel ?stbi__zreceive@@YAIPEAUstbi__zbuf@@H@Z
	DD	imagerel ?stbi__zreceive@@YAIPEAUstbi__zbuf@@H@Z+143
	DD	imagerel $unwind$?stbi__zreceive@@YAIPEAUstbi__zbuf@@H@Z
$pdata$?stbi__zhuffman_decode_slowpath@@YAHPEAUstbi__zbuf@@PEAUstbi__zhuffman@@@Z DD imagerel ?stbi__zhuffman_decode_slowpath@@YAHPEAUstbi__zbuf@@PEAUstbi__zhuffman@@@Z
	DD	imagerel ?stbi__zhuffman_decode_slowpath@@YAHPEAUstbi__zbuf@@PEAUstbi__zhuffman@@@Z+290
	DD	imagerel $unwind$?stbi__zhuffman_decode_slowpath@@YAHPEAUstbi__zbuf@@PEAUstbi__zhuffman@@@Z
$pdata$?stbi__zhuffman_decode@@YAHPEAUstbi__zbuf@@PEAUstbi__zhuffman@@@Z DD imagerel ?stbi__zhuffman_decode@@YAHPEAUstbi__zbuf@@PEAUstbi__zhuffman@@@Z
	DD	imagerel ?stbi__zhuffman_decode@@YAHPEAUstbi__zbuf@@PEAUstbi__zhuffman@@@Z+239
	DD	imagerel $unwind$?stbi__zhuffman_decode@@YAHPEAUstbi__zbuf@@PEAUstbi__zhuffman@@@Z
$pdata$?stbi__zexpand@@YAHPEAUstbi__zbuf@@PEADH@Z DD imagerel ?stbi__zexpand@@YAHPEAUstbi__zbuf@@PEADH@Z
	DD	imagerel ?stbi__zexpand@@YAHPEAUstbi__zbuf@@PEADH@Z+324
	DD	imagerel $unwind$?stbi__zexpand@@YAHPEAUstbi__zbuf@@PEADH@Z
$pdata$?stbi__parse_huffman_block@@YAHPEAUstbi__zbuf@@@Z DD imagerel ?stbi__parse_huffman_block@@YAHPEAUstbi__zbuf@@@Z
	DD	imagerel ?stbi__parse_huffman_block@@YAHPEAUstbi__zbuf@@@Z+780
	DD	imagerel $unwind$?stbi__parse_huffman_block@@YAHPEAUstbi__zbuf@@@Z
$pdata$?stbi__compute_huffman_codes@@YAHPEAUstbi__zbuf@@@Z DD imagerel ?stbi__compute_huffman_codes@@YAHPEAUstbi__zbuf@@@Z
	DD	imagerel ?stbi__compute_huffman_codes@@YAHPEAUstbi__zbuf@@@Z+787
	DD	imagerel $unwind$?stbi__compute_huffman_codes@@YAHPEAUstbi__zbuf@@@Z
$pdata$?stbi__parse_uncompressed_block@@YAHPEAUstbi__zbuf@@@Z DD imagerel ?stbi__parse_uncompressed_block@@YAHPEAUstbi__zbuf@@@Z
	DD	imagerel ?stbi__parse_uncompressed_block@@YAHPEAUstbi__zbuf@@@Z+498
	DD	imagerel $unwind$?stbi__parse_uncompressed_block@@YAHPEAUstbi__zbuf@@@Z
$pdata$?stbi__parse_zlib_header@@YAHPEAUstbi__zbuf@@@Z DD imagerel ?stbi__parse_zlib_header@@YAHPEAUstbi__zbuf@@@Z
	DD	imagerel ?stbi__parse_zlib_header@@YAHPEAUstbi__zbuf@@@Z+178
	DD	imagerel $unwind$?stbi__parse_zlib_header@@YAHPEAUstbi__zbuf@@@Z
$pdata$?stbi__parse_zlib@@YAHPEAUstbi__zbuf@@H@Z DD imagerel ?stbi__parse_zlib@@YAHPEAUstbi__zbuf@@H@Z
	DD	imagerel ?stbi__parse_zlib@@YAHPEAUstbi__zbuf@@H@Z+308
	DD	imagerel $unwind$?stbi__parse_zlib@@YAHPEAUstbi__zbuf@@H@Z
$pdata$?stbi__do_zlib@@YAHPEAUstbi__zbuf@@PEADHHH@Z DD imagerel ?stbi__do_zlib@@YAHPEAUstbi__zbuf@@PEADHHH@Z
	DD	imagerel ?stbi__do_zlib@@YAHPEAUstbi__zbuf@@PEADHHH@Z+108
	DD	imagerel $unwind$?stbi__do_zlib@@YAHPEAUstbi__zbuf@@PEADHHH@Z
$pdata$?stbi__get_chunk_header@@YA?AUstbi__pngchunk@@PEAUstbi__context@@@Z DD imagerel ?stbi__get_chunk_header@@YA?AUstbi__pngchunk@@PEAUstbi__context@@@Z
	DD	imagerel ?stbi__get_chunk_header@@YA?AUstbi__pngchunk@@PEAUstbi__context@@@Z+47
	DD	imagerel $unwind$?stbi__get_chunk_header@@YA?AUstbi__pngchunk@@PEAUstbi__context@@@Z
$pdata$?stbi__check_png_header@@YAHPEAUstbi__context@@@Z DD imagerel ?stbi__check_png_header@@YAHPEAUstbi__context@@@Z
	DD	imagerel ?stbi__check_png_header@@YAHPEAUstbi__context@@@Z+95
	DD	imagerel $unwind$?stbi__check_png_header@@YAHPEAUstbi__context@@@Z
$pdata$?stbi__paeth@@YAHHHH@Z DD imagerel ?stbi__paeth@@YAHHHH@Z
	DD	imagerel ?stbi__paeth@@YAHHHH@Z+190
	DD	imagerel $unwind$?stbi__paeth@@YAHHHH@Z
$pdata$?stbi__create_png_alpha_expand8@@YAXPEAE0IH@Z DD imagerel ?stbi__create_png_alpha_expand8@@YAXPEAE0IH@Z
	DD	imagerel ?stbi__create_png_alpha_expand8@@YAXPEAE0IH@Z+335
	DD	imagerel $unwind$?stbi__create_png_alpha_expand8@@YAXPEAE0IH@Z
$pdata$?stbi__create_png_image_raw@@YAHPEAUstbi__png@@PEAEIHIIHH@Z DD imagerel ?stbi__create_png_image_raw@@YAHPEAUstbi__png@@PEAEIHIIHH@Z
	DD	imagerel ?stbi__create_png_image_raw@@YAHPEAUstbi__png@@PEAEIHIIHH@Z+3192
	DD	imagerel $unwind$?stbi__create_png_image_raw@@YAHPEAUstbi__png@@PEAEIHIIHH@Z
$pdata$?stbi__create_png_image@@YAHPEAUstbi__png@@PEAEIHHHH@Z DD imagerel ?stbi__create_png_image@@YAHPEAUstbi__png@@PEAEIHHHH@Z
	DD	imagerel ?stbi__create_png_image@@YAHPEAUstbi__png@@PEAEIHHHH@Z+1284
	DD	imagerel $unwind$?stbi__create_png_image@@YAHPEAUstbi__png@@PEAEIHHHH@Z
$pdata$?stbi__compute_transparency@@YAHPEAUstbi__png@@QEAEH@Z DD imagerel ?stbi__compute_transparency@@YAHPEAUstbi__png@@QEAEH@Z
	DD	imagerel ?stbi__compute_transparency@@YAHPEAUstbi__png@@QEAEH@Z+450
	DD	imagerel $unwind$?stbi__compute_transparency@@YAHPEAUstbi__png@@QEAEH@Z
$pdata$?stbi__compute_transparency16@@YAHPEAUstbi__png@@QEAGH@Z DD imagerel ?stbi__compute_transparency16@@YAHPEAUstbi__png@@QEAGH@Z
	DD	imagerel ?stbi__compute_transparency16@@YAHPEAUstbi__png@@QEAGH@Z+453
	DD	imagerel $unwind$?stbi__compute_transparency16@@YAHPEAUstbi__png@@QEAGH@Z
$pdata$?stbi__expand_png_palette@@YAHPEAUstbi__png@@PEAEHH@Z DD imagerel ?stbi__expand_png_palette@@YAHPEAUstbi__png@@PEAEHH@Z
	DD	imagerel ?stbi__expand_png_palette@@YAHPEAUstbi__png@@PEAEHH@Z+562
	DD	imagerel $unwind$?stbi__expand_png_palette@@YAHPEAUstbi__png@@PEAEHH@Z
$pdata$?stbi__de_iphone@@YAXPEAUstbi__png@@@Z DD imagerel ?stbi__de_iphone@@YAXPEAUstbi__png@@@Z
	DD	imagerel ?stbi__de_iphone@@YAXPEAUstbi__png@@@Z+800
	DD	imagerel $unwind$?stbi__de_iphone@@YAXPEAUstbi__png@@@Z
$pdata$?stbi__parse_png_file@@YAHPEAUstbi__png@@HH@Z DD imagerel ?stbi__parse_png_file@@YAHPEAUstbi__png@@HH@Z
	DD	imagerel ?stbi__parse_png_file@@YAHPEAUstbi__png@@HH@Z+3480
	DD	imagerel $unwind$?stbi__parse_png_file@@YAHPEAUstbi__png@@HH@Z
$pdata$?stbi__do_png@@YAPEAXPEAUstbi__png@@PEAH11HPEAUstbi__result_info@@@Z DD imagerel ?stbi__do_png@@YAPEAXPEAUstbi__png@@PEAH11HPEAUstbi__result_info@@@Z
	DD	imagerel ?stbi__do_png@@YAPEAXPEAUstbi__png@@PEAH11HPEAUstbi__result_info@@@Z+578
	DD	imagerel $unwind$?stbi__do_png@@YAPEAXPEAUstbi__png@@PEAH11HPEAUstbi__result_info@@@Z
$pdata$?stbi__png_info_raw@@YAHPEAUstbi__png@@PEAH11@Z DD imagerel ?stbi__png_info_raw@@YAHPEAUstbi__png@@PEAH11@Z
	DD	imagerel ?stbi__png_info_raw@@YAHPEAUstbi__png@@PEAH11@Z+150
	DD	imagerel $unwind$?stbi__png_info_raw@@YAHPEAUstbi__png@@PEAH11@Z
$pdata$?stbi__bmp_test_raw@@YAHPEAUstbi__context@@@Z DD imagerel ?stbi__bmp_test_raw@@YAHPEAUstbi__context@@@Z
	DD	imagerel ?stbi__bmp_test_raw@@YAHPEAUstbi__context@@@Z+180
	DD	imagerel $unwind$?stbi__bmp_test_raw@@YAHPEAUstbi__context@@@Z
$pdata$?stbi__high_bit@@YAHI@Z DD imagerel ?stbi__high_bit@@YAHI@Z
	DD	imagerel ?stbi__high_bit@@YAHI@Z+169
	DD	imagerel $unwind$?stbi__high_bit@@YAHI@Z
$pdata$?stbi__shiftsigned@@YAHIHH@Z DD imagerel ?stbi__shiftsigned@@YAHIHH@Z
	DD	imagerel ?stbi__shiftsigned@@YAHIHH@Z+206
	DD	imagerel $unwind$?stbi__shiftsigned@@YAHIHH@Z
$pdata$?stbi__bmp_parse_header@@YAPEAXPEAUstbi__context@@PEAUstbi__bmp_data@@@Z DD imagerel ?stbi__bmp_parse_header@@YAPEAXPEAUstbi__context@@PEAUstbi__bmp_data@@@Z
	DD	imagerel ?stbi__bmp_parse_header@@YAPEAXPEAUstbi__context@@PEAUstbi__bmp_data@@@Z+1359
	DD	imagerel $unwind$?stbi__bmp_parse_header@@YAPEAXPEAUstbi__context@@PEAUstbi__bmp_data@@@Z
$pdata$?stbi__tga_get_comp@@YAHHHPEAH@Z DD imagerel ?stbi__tga_get_comp@@YAHHHPEAH@Z
	DD	imagerel ?stbi__tga_get_comp@@YAHHHPEAH@Z+144
	DD	imagerel $unwind$?stbi__tga_get_comp@@YAHHHPEAH@Z
$pdata$?stbi__tga_read_rgb16@@YAXPEAUstbi__context@@PEAE@Z DD imagerel ?stbi__tga_read_rgb16@@YAXPEAUstbi__context@@PEAE@Z
	DD	imagerel ?stbi__tga_read_rgb16@@YAXPEAUstbi__context@@PEAE@Z+197
	DD	imagerel $unwind$?stbi__tga_read_rgb16@@YAXPEAUstbi__context@@PEAE@Z
$pdata$?stbi__psd_decode_rle@@YAHPEAUstbi__context@@PEAEH@Z DD imagerel ?stbi__psd_decode_rle@@YAHPEAUstbi__context@@PEAEH@Z
	DD	imagerel ?stbi__psd_decode_rle@@YAHPEAUstbi__context@@PEAEH@Z+318
	DD	imagerel $unwind$?stbi__psd_decode_rle@@YAHPEAUstbi__context@@PEAEH@Z
$pdata$?stbi__pic_is4@@YAHPEAUstbi__context@@PEBD@Z DD imagerel ?stbi__pic_is4@@YAHPEAUstbi__context@@PEBD@Z
	DD	imagerel ?stbi__pic_is4@@YAHPEAUstbi__context@@PEBD@Z+88
	DD	imagerel $unwind$?stbi__pic_is4@@YAHPEAUstbi__context@@PEBD@Z
$pdata$?stbi__pic_test_core@@YAHPEAUstbi__context@@@Z DD imagerel ?stbi__pic_test_core@@YAHPEAUstbi__context@@@Z
	DD	imagerel ?stbi__pic_test_core@@YAHPEAUstbi__context@@@Z+108
	DD	imagerel $unwind$?stbi__pic_test_core@@YAHPEAUstbi__context@@@Z
$pdata$?stbi__readval@@YAPEAEPEAUstbi__context@@HPEAE@Z DD imagerel ?stbi__readval@@YAPEAEPEAUstbi__context@@HPEAE@Z
	DD	imagerel ?stbi__readval@@YAPEAEPEAUstbi__context@@HPEAE@Z+169
	DD	imagerel $unwind$?stbi__readval@@YAPEAEPEAUstbi__context@@HPEAE@Z
$pdata$?stbi__copyval@@YAXHPEAEPEBE@Z DD imagerel ?stbi__copyval@@YAXHPEAEPEBE@Z
	DD	imagerel ?stbi__copyval@@YAXHPEAEPEBE@Z+108
	DD	imagerel $unwind$?stbi__copyval@@YAXHPEAEPEBE@Z
$pdata$?stbi__pic_load_core@@YAPEAEPEAUstbi__context@@HHPEAHPEAE@Z DD imagerel ?stbi__pic_load_core@@YAPEAEPEAUstbi__context@@HHPEAHPEAE@Z
	DD	imagerel ?stbi__pic_load_core@@YAPEAEPEAUstbi__context@@HHPEAHPEAE@Z+1593
	DD	imagerel $unwind$?stbi__pic_load_core@@YAPEAEPEAUstbi__context@@HHPEAHPEAE@Z
$pdata$?stbi__gif_test_raw@@YAHPEAUstbi__context@@@Z DD imagerel ?stbi__gif_test_raw@@YAHPEAUstbi__context@@@Z
	DD	imagerel ?stbi__gif_test_raw@@YAHPEAUstbi__context@@@Z+152
	DD	imagerel $unwind$?stbi__gif_test_raw@@YAHPEAUstbi__context@@@Z
$pdata$?stbi__gif_parse_colortable@@YAXPEAUstbi__context@@QEAY03EHH@Z DD imagerel ?stbi__gif_parse_colortable@@YAXPEAUstbi__context@@QEAY03EHH@Z
	DD	imagerel ?stbi__gif_parse_colortable@@YAXPEAUstbi__context@@QEAY03EHH@Z+235
	DD	imagerel $unwind$?stbi__gif_parse_colortable@@YAXPEAUstbi__context@@QEAY03EHH@Z
$pdata$?stbi__gif_header@@YAHPEAUstbi__context@@PEAUstbi__gif@@PEAHH@Z DD imagerel ?stbi__gif_header@@YAHPEAUstbi__context@@PEAUstbi__gif@@PEAHH@Z
	DD	imagerel ?stbi__gif_header@@YAHPEAUstbi__context@@PEAUstbi__gif@@PEAHH@Z+524
	DD	imagerel $unwind$?stbi__gif_header@@YAHPEAUstbi__context@@PEAUstbi__gif@@PEAHH@Z
$pdata$?stbi__gif_info_raw@@YAHPEAUstbi__context@@PEAH11@Z DD imagerel ?stbi__gif_info_raw@@YAHPEAUstbi__context@@PEAH11@Z
	DD	imagerel ?stbi__gif_info_raw@@YAHPEAUstbi__context@@PEAH11@Z+180
	DD	imagerel $unwind$?stbi__gif_info_raw@@YAHPEAUstbi__context@@PEAH11@Z
$pdata$?stbi__out_gif_code@@YAXPEAUstbi__gif@@G@Z DD imagerel ?stbi__out_gif_code@@YAXPEAUstbi__gif@@G@Z
	DD	imagerel ?stbi__out_gif_code@@YAXPEAUstbi__gif@@G@Z+662
	DD	imagerel $unwind$?stbi__out_gif_code@@YAXPEAUstbi__gif@@G@Z
$pdata$?stbi__process_gif_raster@@YAPEAEPEAUstbi__context@@PEAUstbi__gif@@@Z DD imagerel ?stbi__process_gif_raster@@YAPEAEPEAUstbi__context@@PEAUstbi__gif@@@Z
	DD	imagerel ?stbi__process_gif_raster@@YAPEAEPEAUstbi__context@@PEAUstbi__gif@@@Z+1097
	DD	imagerel $unwind$?stbi__process_gif_raster@@YAPEAEPEAUstbi__context@@PEAUstbi__gif@@@Z
$pdata$?stbi__gif_load_next@@YAPEAEPEAUstbi__context@@PEAUstbi__gif@@PEAHHPEAE@Z DD imagerel ?stbi__gif_load_next@@YAPEAEPEAUstbi__context@@PEAUstbi__gif@@PEAHHPEAE@Z
	DD	imagerel ?stbi__gif_load_next@@YAPEAEPEAUstbi__context@@PEAUstbi__gif@@PEAHHPEAE@Z+2536
	DD	imagerel $unwind$?stbi__gif_load_next@@YAPEAEPEAUstbi__context@@PEAUstbi__gif@@PEAHHPEAE@Z
$pdata$?stbi__load_gif_main_outofmem@@YAPEAXPEAUstbi__gif@@PEAEPEAPEAH@Z DD imagerel ?stbi__load_gif_main_outofmem@@YAPEAXPEAUstbi__gif@@PEAEPEAPEAH@Z
	DD	imagerel ?stbi__load_gif_main_outofmem@@YAPEAXPEAUstbi__gif@@PEAEPEAPEAH@Z+155
	DD	imagerel $unwind$?stbi__load_gif_main_outofmem@@YAPEAXPEAUstbi__gif@@PEAEPEAPEAH@Z
$pdata$?stbi__hdr_test_core@@YAHPEAUstbi__context@@PEBD@Z DD imagerel ?stbi__hdr_test_core@@YAHPEAUstbi__context@@PEBD@Z
	DD	imagerel ?stbi__hdr_test_core@@YAHPEAUstbi__context@@PEBD@Z+109
	DD	imagerel $unwind$?stbi__hdr_test_core@@YAHPEAUstbi__context@@PEBD@Z
$pdata$?stbi__hdr_gettoken@@YAPEADPEAUstbi__context@@PEAD@Z DD imagerel ?stbi__hdr_gettoken@@YAPEADPEAUstbi__context@@PEAD@Z
	DD	imagerel ?stbi__hdr_gettoken@@YAPEADPEAUstbi__context@@PEAD@Z+179
	DD	imagerel $unwind$?stbi__hdr_gettoken@@YAPEADPEAUstbi__context@@PEAD@Z
$pdata$?stbi__hdr_convert@@YAXPEAMPEAEH@Z DD imagerel ?stbi__hdr_convert@@YAXPEAMPEAEH@Z
	DD	imagerel ?stbi__hdr_convert@@YAXPEAMPEAEH@Z+604
	DD	imagerel $unwind$?stbi__hdr_convert@@YAXPEAMPEAEH@Z
$pdata$?stbi__pnm_isspace@@YAHD@Z DD imagerel ?stbi__pnm_isspace@@YAHD@Z
	DD	imagerel ?stbi__pnm_isspace@@YAHD@Z+92
	DD	imagerel $unwind$?stbi__pnm_isspace@@YAHD@Z
$pdata$?stbi__pnm_skip_whitespace@@YAXPEAUstbi__context@@PEAD@Z DD imagerel ?stbi__pnm_skip_whitespace@@YAXPEAUstbi__context@@PEAD@Z
	DD	imagerel ?stbi__pnm_skip_whitespace@@YAXPEAUstbi__context@@PEAD@Z+162
	DD	imagerel $unwind$?stbi__pnm_skip_whitespace@@YAXPEAUstbi__context@@PEAD@Z
$pdata$?stbi__pnm_isdigit@@YAHD@Z DD imagerel ?stbi__pnm_isdigit@@YAHD@Z
	DD	imagerel ?stbi__pnm_isdigit@@YAHD@Z+52
	DD	imagerel $unwind$?stbi__pnm_isdigit@@YAHD@Z
$pdata$?stbi__pnm_getinteger@@YAHPEAUstbi__context@@PEAD@Z DD imagerel ?stbi__pnm_getinteger@@YAHPEAUstbi__context@@PEAD@Z
	DD	imagerel ?stbi__pnm_getinteger@@YAHPEAUstbi__context@@PEAD@Z+149
	DD	imagerel $unwind$?stbi__pnm_getinteger@@YAHPEAUstbi__context@@PEAD@Z
$pdata$?stbi__info_main@@YAHPEAUstbi__context@@PEAH11@Z DD imagerel ?stbi__info_main@@YAHPEAUstbi__context@@PEAH11@Z
	DD	imagerel ?stbi__info_main@@YAHPEAUstbi__context@@PEAH11@Z+380
	DD	imagerel $unwind$?stbi__info_main@@YAHPEAUstbi__context@@PEAH11@Z
$pdata$?stbi__is_16_main@@YAHPEAUstbi__context@@@Z DD imagerel ?stbi__is_16_main@@YAHPEAUstbi__context@@@Z
	DD	imagerel ?stbi__is_16_main@@YAHPEAUstbi__context@@@Z+79
	DD	imagerel $unwind$?stbi__is_16_main@@YAHPEAUstbi__context@@@Z
$pdata$?read_file@@YAXPEADPEAPEAEPEA_K@Z DD imagerel ?read_file@@YAXPEADPEAPEAEPEA_K@Z
	DD	imagerel ?read_file@@YAXPEADPEAPEAEPEA_K@Z+286
	DD	imagerel $unwind$?read_file@@YAXPEADPEAPEAEPEA_K@Z
$pdata$?parse_int@@YAHPEAPEAE@Z DD imagerel ?parse_int@@YAHPEAPEAE@Z
	DD	imagerel ?parse_int@@YAHPEAPEAE@Z+64
	DD	imagerel $unwind$?parse_int@@YAHPEAPEAE@Z
$pdata$?parse_double@@YANPEAPEAE@Z DD imagerel ?parse_double@@YANPEAPEAE@Z
	DD	imagerel ?parse_double@@YANPEAPEAE@Z+67
	DD	imagerel $unwind$?parse_double@@YANPEAPEAE@Z
$pdata$?parse_v2@@YAXPEAMPEAPEAE@Z DD imagerel ?parse_v2@@YAXPEAMPEAPEAE@Z
	DD	imagerel ?parse_v2@@YAXPEAMPEAPEAE@Z+85
	DD	imagerel $unwind$?parse_v2@@YAXPEAMPEAPEAE@Z
$pdata$?parse_v3@@YAXPEAMPEAPEAE@Z DD imagerel ?parse_v3@@YAXPEAMPEAPEAE@Z
	DD	imagerel ?parse_v3@@YAXPEAMPEAPEAE@Z+118
	DD	imagerel $unwind$?parse_v3@@YAXPEAMPEAPEAE@Z
$pdata$?parse_indices@@YA?ATvert_idx_t@@PEAPEAE@Z DD imagerel ?parse_indices@@YA?ATvert_idx_t@@PEAPEAE@Z
	DD	imagerel ?parse_indices@@YA?ATvert_idx_t@@PEAPEAE@Z+291
	DD	imagerel $unwind$?parse_indices@@YA?ATvert_idx_t@@PEAPEAE@Z
$pdata$?parse_name@@YAIPEAPEAEPEAPEAD@Z DD imagerel ?parse_name@@YAIPEAPEAEPEAPEAD@Z
	DD	imagerel ?parse_name@@YAIPEAPEAEPEAPEAD@Z+200
	DD	imagerel $unwind$?parse_name@@YAIPEAPEAEPEAPEAD@Z
$pdata$?parse_obj@@YAXPEAUobj_info_t@@PEAEPEAPEAD@Z DD imagerel ?parse_obj@@YAXPEAUobj_info_t@@PEAEPEAPEAD@Z
	DD	imagerel ?parse_obj@@YAXPEAUobj_info_t@@PEAEPEAPEAD@Z+1614
	DD	imagerel $unwind$?parse_obj@@YAXPEAUobj_info_t@@PEAEPEAPEAD@Z
$pdata$?init_obj_material@@YAXPEAUobj_mat_t@@@Z DD imagerel ?init_obj_material@@YAXPEAUobj_mat_t@@@Z
	DD	imagerel ?init_obj_material@@YAXPEAUobj_mat_t@@@Z+86
	DD	imagerel $unwind$?init_obj_material@@YAXPEAUobj_mat_t@@@Z
$pdata$?parse_mtl@@YAXPEAUobj_info_t@@PEAE@Z DD imagerel ?parse_mtl@@YAXPEAUobj_info_t@@PEAE@Z
	DD	imagerel ?parse_mtl@@YAXPEAUobj_info_t@@PEAE@Z+2343
	DD	imagerel $unwind$?parse_mtl@@YAXPEAUobj_info_t@@PEAE@Z
$pdata$?load_obj@@YA?AUobj_info_t@@PEAD@Z DD imagerel ?load_obj@@YA?AUobj_info_t@@PEAD@Z
	DD	imagerel ?load_obj@@YA?AUobj_info_t@@PEAD@Z+555
	DD	imagerel $unwind$?load_obj@@YA?AUobj_info_t@@PEAD@Z
$pdata$?free_obj@@YAXPEAUobj_info_t@@@Z DD imagerel ?free_obj@@YAXPEAUobj_info_t@@@Z
	DD	imagerel ?free_obj@@YAXPEAUobj_info_t@@@Z+642
	DD	imagerel $unwind$?free_obj@@YAXPEAUobj_info_t@@@Z
$pdata$?load_shader_source@@YAPEADPEBD@Z DD imagerel ?load_shader_source@@YAPEADPEBD@Z
	DD	imagerel ?load_shader_source@@YAPEADPEBD@Z+433
	DD	imagerel $unwind$?load_shader_source@@YAPEADPEBD@Z
$pdata$?compile_shader@@YAIPEADI@Z DD imagerel ?compile_shader@@YAIPEADI@Z
	DD	imagerel ?compile_shader@@YAIPEADI@Z+245
	DD	imagerel $unwind$?compile_shader@@YAIPEADI@Z
$pdata$?compile_shader_from_file@@YAIPEBDI@Z DD imagerel ?compile_shader_from_file@@YAIPEBDI@Z
	DD	imagerel ?compile_shader_from_file@@YAIPEBDI@Z+65
	DD	imagerel $unwind$?compile_shader_from_file@@YAIPEBDI@Z
$pdata$?create_program@@YAIPEAII@Z DD imagerel ?create_program@@YAIPEAII@Z
	DD	imagerel ?create_program@@YAIPEAII@Z+272
	DD	imagerel $unwind$?create_program@@YAIPEAII@Z
$pdata$?add_shader@@YAIPEAUgl_renderer@@IZZ DD imagerel ?add_shader@@YAIPEAUgl_renderer@@IZZ
	DD	imagerel ?add_shader@@YAIPEAUgl_renderer@@IZZ+389
	DD	imagerel $unwind$?add_shader@@YAIPEAUgl_renderer@@IZZ
$pdata$?set_uniform_int@@YAXIPEBDH@Z DD imagerel ?set_uniform_int@@YAXIPEBDH@Z
	DD	imagerel ?set_uniform_int@@YAXIPEBDH@Z+71
	DD	imagerel $unwind$?set_uniform_int@@YAXIPEBDH@Z
$pdata$?set_uniform_float@@YAXIPEBDM@Z DD imagerel ?set_uniform_float@@YAXIPEBDM@Z
	DD	imagerel ?set_uniform_float@@YAXIPEBDM@Z+74
	DD	imagerel $unwind$?set_uniform_float@@YAXIPEBDM@Z
$pdata$?set_uniform_vec3@@YAXIPEBDTHMM_Vec3@@@Z DD imagerel ?set_uniform_vec3@@YAXIPEBDTHMM_Vec3@@@Z
	DD	imagerel ?set_uniform_vec3@@YAXIPEBDTHMM_Vec3@@@Z+96
	DD	imagerel $unwind$?set_uniform_vec3@@YAXIPEBDTHMM_Vec3@@@Z
$pdata$?set_uniform_mat4@@YAXIPEBDTHMM_Mat4@@@Z DD imagerel ?set_uniform_mat4@@YAXIPEBDTHMM_Mat4@@@Z
	DD	imagerel ?set_uniform_mat4@@YAXIPEBDTHMM_Mat4@@@Z+83
	DD	imagerel $unwind$?set_uniform_mat4@@YAXIPEBDTHMM_Mat4@@@Z
$pdata$?create_texture_from_bitmap@@YAIPEAUasset_manager_t@@PEAEHHH@Z DD imagerel ?create_texture_from_bitmap@@YAIPEAUasset_manager_t@@PEAEHHH@Z
	DD	imagerel ?create_texture_from_bitmap@@YAIPEAUasset_manager_t@@PEAEHHH@Z+831
	DD	imagerel $unwind$?create_texture_from_bitmap@@YAIPEAUasset_manager_t@@PEAEHHH@Z
$pdata$?init_asset_manager@@YAXPEAUasset_manager_t@@@Z DD imagerel ?init_asset_manager@@YAXPEAUasset_manager_t@@@Z
	DD	imagerel ?init_asset_manager@@YAXPEAUasset_manager_t@@@Z+319
	DD	imagerel $unwind$?init_asset_manager@@YAXPEAUasset_manager_t@@@Z
$pdata$?hash_vert_idx@@YA_KPEAH@Z DD imagerel ?hash_vert_idx@@YA_KPEAH@Z
	DD	imagerel ?hash_vert_idx@@YA_KPEAH@Z+142
	DD	imagerel $unwind$?hash_vert_idx@@YA_KPEAH@Z
$pdata$?kh_init_vertex_map_t@@YAPEAUkh_vertex_map_t_s@@XZ DD imagerel ?kh_init_vertex_map_t@@YAPEAUkh_vertex_map_t_s@@XZ
	DD	imagerel ?kh_init_vertex_map_t@@YAPEAUkh_vertex_map_t_s@@XZ+24
	DD	imagerel $unwind$?kh_init_vertex_map_t@@YAPEAUkh_vertex_map_t_s@@XZ
$pdata$?kh_destroy_vertex_map_t@@YAXPEAUkh_vertex_map_t_s@@@Z DD imagerel ?kh_destroy_vertex_map_t@@YAXPEAUkh_vertex_map_t_s@@@Z
	DD	imagerel ?kh_destroy_vertex_map_t@@YAXPEAUkh_vertex_map_t_s@@@Z+74
	DD	imagerel $unwind$?kh_destroy_vertex_map_t@@YAXPEAUkh_vertex_map_t_s@@@Z
$pdata$?kh_get_vertex_map_t@@YAIPEBUkh_vertex_map_t_s@@Tvert_idx_t@@@Z DD imagerel ?kh_get_vertex_map_t@@YAIPEBUkh_vertex_map_t_s@@Tvert_idx_t@@@Z
	DD	imagerel ?kh_get_vertex_map_t@@YAIPEBUkh_vertex_map_t_s@@Tvert_idx_t@@@Z+431
	DD	imagerel $unwind$?kh_get_vertex_map_t@@YAIPEBUkh_vertex_map_t_s@@Tvert_idx_t@@@Z
$pdata$?kh_resize_vertex_map_t@@YAHPEAUkh_vertex_map_t_s@@I@Z DD imagerel ?kh_resize_vertex_map_t@@YAHPEAUkh_vertex_map_t_s@@I@Z
	DD	imagerel ?kh_resize_vertex_map_t@@YAHPEAUkh_vertex_map_t_s@@I@Z+1764
	DD	imagerel $unwind$?kh_resize_vertex_map_t@@YAHPEAUkh_vertex_map_t_s@@I@Z
$pdata$?kh_put_vertex_map_t@@YAIPEAUkh_vertex_map_t_s@@Tvert_idx_t@@PEAH@Z DD imagerel ?kh_put_vertex_map_t@@YAIPEAUkh_vertex_map_t_s@@Tvert_idx_t@@PEAH@Z
	DD	imagerel ?kh_put_vertex_map_t@@YAIPEAUkh_vertex_map_t_s@@Tvert_idx_t@@PEAH@Z+1310
	DD	imagerel $unwind$?kh_put_vertex_map_t@@YAIPEAUkh_vertex_map_t_s@@Tvert_idx_t@@PEAH@Z
$pdata$?kh_del_vertex_map_t@@YAXPEAUkh_vertex_map_t_s@@I@Z DD imagerel ?kh_del_vertex_map_t@@YAXPEAUkh_vertex_map_t_s@@I@Z
	DD	imagerel ?kh_del_vertex_map_t@@YAXPEAUkh_vertex_map_t_s@@I@Z+182
	DD	imagerel $unwind$?kh_del_vertex_map_t@@YAXPEAUkh_vertex_map_t_s@@I@Z
$pdata$?create_model@@YAXPEAUmesh_t@@PEAUobj_info_t@@IUcolor_t@@@Z DD imagerel ?create_model@@YAXPEAUmesh_t@@PEAUobj_info_t@@IUcolor_t@@@Z
	DD	imagerel ?create_model@@YAXPEAUmesh_t@@PEAUobj_info_t@@IUcolor_t@@@Z+1957
	DD	imagerel $unwind$?create_model@@YAXPEAUmesh_t@@PEAUobj_info_t@@IUcolor_t@@@Z
$pdata$?create_texture@@YAIPEAUasset_manager_t@@PEAD@Z DD imagerel ?create_texture@@YAIPEAUasset_manager_t@@PEAD@Z
	DD	imagerel ?create_texture@@YAIPEAUasset_manager_t@@PEAD@Z+108
	DD	imagerel $unwind$?create_texture@@YAIPEAUasset_manager_t@@PEAD@Z
$pdata$?create_materials@@YAXPEAUasset_manager_t@@PEAUmaterial_t@@PEAUobj_info_t@@@Z DD imagerel ?create_materials@@YAXPEAUasset_manager_t@@PEAUmaterial_t@@PEAUobj_info_t@@@Z
	DD	imagerel ?create_materials@@YAXPEAUasset_manager_t@@PEAUmaterial_t@@PEAUobj_info_t@@@Z+652
	DD	imagerel $unwind$?create_materials@@YAXPEAUasset_manager_t@@PEAUmaterial_t@@PEAUobj_info_t@@@Z
$pdata$?add_model@@YAXPEAUasset_manager_t@@PEADPEAUmodel_info_t@@Ucolor_t@@@Z DD imagerel ?add_model@@YAXPEAUasset_manager_t@@PEADPEAUmodel_info_t@@Ucolor_t@@@Z
	DD	imagerel ?add_model@@YAXPEAUasset_manager_t@@PEADPEAUmodel_info_t@@Ucolor_t@@@Z+597
	DD	imagerel $unwind$?add_model@@YAXPEAUasset_manager_t@@PEADPEAUmodel_info_t@@Ucolor_t@@@Z
$pdata$?init_gl_renderer@@YAXPEAUgl_renderer@@PEAUcamera_t@@@Z DD imagerel ?init_gl_renderer@@YAXPEAUgl_renderer@@PEAUcamera_t@@@Z
	DD	imagerel ?init_gl_renderer@@YAXPEAUgl_renderer@@PEAUcamera_t@@@Z+236
	DD	imagerel $unwind$?init_gl_renderer@@YAXPEAUgl_renderer@@PEAUcamera_t@@@Z
$pdata$?update_camera@@YAXPEAUcamera_t@@@Z DD imagerel ?update_camera@@YAXPEAUcamera_t@@@Z
	DD	imagerel ?update_camera@@YAXPEAUcamera_t@@@Z+870
	DD	imagerel $unwind$?update_camera@@YAXPEAUcamera_t@@@Z
$pdata$?init_camera@@YAXPEAUcamera_t@@THMM_Vec3@@MMMMMM@Z DD imagerel ?init_camera@@YAXPEAUcamera_t@@THMM_Vec3@@MMMMMM@Z
	DD	imagerel ?init_camera@@YAXPEAUcamera_t@@THMM_Vec3@@MMMMMM@Z+369
	DD	imagerel $unwind$?init_camera@@YAXPEAUcamera_t@@THMM_Vec3@@MMMMMM@Z
$pdata$?init_light@@YAXPEAUlight_t@@THMM_Vec3@@MMM@Z DD imagerel ?init_light@@YAXPEAUlight_t@@THMM_Vec3@@MMM@Z
	DD	imagerel ?init_light@@YAXPEAUlight_t@@THMM_Vec3@@MMM@Z+92
	DD	imagerel $unwind$?init_light@@YAXPEAUlight_t@@THMM_Vec3@@MMM@Z
$pdata$?add_light@@YAXPEAUgl_renderer@@THMM_Vec3@@MMM@Z DD imagerel ?add_light@@YAXPEAUgl_renderer@@THMM_Vec3@@MMM@Z
	DD	imagerel ?add_light@@YAXPEAUgl_renderer@@THMM_Vec3@@MMM@Z+159
	DD	imagerel $unwind$?add_light@@YAXPEAUgl_renderer@@THMM_Vec3@@MMM@Z
$pdata$?init_framebuffer@@YAXPEAUgl_renderer@@PEBD1@Z DD imagerel $LN7
	DD	imagerel $LN7+1193
	DD	imagerel $unwind$?init_framebuffer@@YAXPEAUgl_renderer@@PEBD1@Z
$pdata$?update_transform@@YAXPEAUgl_renderer@@PEATHMM_Mat4@@THMM_Vec3@@22@Z DD imagerel ?update_transform@@YAXPEAUgl_renderer@@PEATHMM_Mat4@@THMM_Vec3@@22@Z
	DD	imagerel ?update_transform@@YAXPEAUgl_renderer@@PEATHMM_Mat4@@THMM_Vec3@@22@Z+1377
	DD	imagerel $unwind$?update_transform@@YAXPEAUgl_renderer@@PEATHMM_Mat4@@THMM_Vec3@@22@Z
$pdata$?add_entity@@YAIPEAUgl_renderer@@PEAUmodel_info_t@@THMM_Vec3@@22@Z DD imagerel ?add_entity@@YAIPEAUgl_renderer@@PEAUmodel_info_t@@THMM_Vec3@@22@Z
	DD	imagerel ?add_entity@@YAIPEAUgl_renderer@@PEAUmodel_info_t@@THMM_Vec3@@22@Z+425
	DD	imagerel $unwind$?add_entity@@YAIPEAUgl_renderer@@PEAUmodel_info_t@@THMM_Vec3@@22@Z
$pdata$?push_mesh@@YAXPEAUgl_renderer@@PEAUasset_manager_t@@PEAUmodel_info_t@@Ucolor_t@@@Z DD imagerel ?push_mesh@@YAXPEAUgl_renderer@@PEAUasset_manager_t@@PEAUmodel_info_t@@Ucolor_t@@@Z
	DD	imagerel ?push_mesh@@YAXPEAUgl_renderer@@PEAUasset_manager_t@@PEAUmodel_info_t@@Ucolor_t@@@Z+721
	DD	imagerel $unwind$?push_mesh@@YAXPEAUgl_renderer@@PEAUasset_manager_t@@PEAUmodel_info_t@@Ucolor_t@@@Z
$pdata$?adjust_bezier_c1@@YAXPEATHMM_Vec3@@I@Z DD imagerel ?adjust_bezier_c1@@YAXPEATHMM_Vec3@@I@Z
	DD	imagerel ?adjust_bezier_c1@@YAXPEATHMM_Vec3@@I@Z+690
	DD	imagerel $unwind$?adjust_bezier_c1@@YAXPEATHMM_Vec3@@I@Z
$pdata$?adjust_bezier_g1@@YAXPEATHMM_Vec3@@I@Z DD imagerel ?adjust_bezier_g1@@YAXPEATHMM_Vec3@@I@Z
	DD	imagerel ?adjust_bezier_g1@@YAXPEATHMM_Vec3@@I@Z+1091
	DD	imagerel $unwind$?adjust_bezier_g1@@YAXPEATHMM_Vec3@@I@Z
$pdata$?render_mesh@@YAXPEAUgl_renderer@@Umodel_info_t@@@Z DD imagerel ?render_mesh@@YAXPEAUgl_renderer@@Umodel_info_t@@@Z
	DD	imagerel ?render_mesh@@YAXPEAUgl_renderer@@Umodel_info_t@@@Z+250
	DD	imagerel $unwind$?render_mesh@@YAXPEAUgl_renderer@@Umodel_info_t@@@Z
$pdata$?bind_material@@YAXPEAUasset_manager_t@@PEAUmaterial_t@@II@Z DD imagerel ?bind_material@@YAXPEAUasset_manager_t@@PEAUmaterial_t@@II@Z
	DD	imagerel ?bind_material@@YAXPEAUasset_manager_t@@PEAUmaterial_t@@II@Z+489
	DD	imagerel $unwind$?bind_material@@YAXPEAUasset_manager_t@@PEAUmaterial_t@@II@Z
$pdata$?bind_lights@@YAXPEAUlight_t@@II@Z DD imagerel ?bind_lights@@YAXPEAUlight_t@@II@Z
	DD	imagerel ?bind_lights@@YAXPEAUlight_t@@II@Z+386
	DD	imagerel $unwind$?bind_lights@@YAXPEAUlight_t@@II@Z
$pdata$?render@@YAXPEAUgl_renderer@@PEAUasset_manager_t@@I@Z DD imagerel ?render@@YAXPEAUgl_renderer@@PEAUasset_manager_t@@I@Z
	DD	imagerel ?render@@YAXPEAUgl_renderer@@PEAUasset_manager_t@@I@Z+3360
	DD	imagerel $unwind$?render@@YAXPEAUgl_renderer@@PEAUasset_manager_t@@I@Z
$pdata$?framebuffer_size_callback@@YAXPEAUGLFWwindow@@HH@Z DD imagerel $LN3
	DD	imagerel $LN3+43
	DD	imagerel $unwind$?framebuffer_size_callback@@YAXPEAUGLFWwindow@@HH@Z
$pdata$?draw_vec3_widget@@YAXPEBDPEATHMM_Vec3@@@Z DD imagerel ?draw_vec3_widget@@YAXPEBDPEATHMM_Vec3@@@Z
	DD	imagerel ?draw_vec3_widget@@YAXPEBDPEATHMM_Vec3@@@Z+375
	DD	imagerel $unwind$?draw_vec3_widget@@YAXPEBDPEATHMM_Vec3@@@Z
$pdata$?process_input@@YAXPEAUGLFWwindow@@PEAUgl_renderer@@I@Z DD imagerel $LN26
	DD	imagerel $LN26+1019
	DD	imagerel $unwind$?process_input@@YAXPEAUGLFWwindow@@PEAUgl_renderer@@I@Z
$pdata$main DD	imagerel $LN85
	DD	imagerel $LN85+7138
	DD	imagerel $unwind$main
pdata	ENDS
pdata	SEGMENT
$pdata$main$dtor$0 DD imagerel main$dtor$0
	DD	imagerel main$dtor$0+27
	DD	imagerel $unwind$main$dtor$0
pdata	ENDS
;	COMDAT __xmm@fa7efa7efa7efa7efa7efa7efa7efa7e
CONST	SEGMENT
__xmm@fa7efa7efa7efa7efa7efa7efa7efa7e DB '~', 0faH, '~', 0faH, '~', 0faH
	DB	'~', 0faH, '~', 0faH, '~', 0faH, '~', 0faH, '~', 0faH
CONST	ENDS
;	COMDAT __xmm@f9c31a9df9c31a9df9c31a9df9c31a9d
CONST	SEGMENT
__xmm@f9c31a9df9c31a9df9c31a9df9c31a9d DB 09dH, 01aH, 0c3H, 0f9H, 09dH, 01aH
	DB	0c3H, 0f9H, 09dH, 01aH, 0c3H, 0f9H, 09dH, 01aH, 0c3H, 0f9H
CONST	ENDS
;	COMDAT __xmm@f493f493f493f493f493f493f493f493
CONST	SEGMENT
__xmm@f493f493f493f493f493f493f493f493 DB 093H, 0f4H, 093H, 0f4H, 093H, 0f4H
	DB	093H, 0f4H, 093H, 0f4H, 093H, 0f4H, 093H, 0f4H, 093H, 0f4H
CONST	ENDS
;	COMDAT __xmm@eb1a08a9eb1a08a9eb1a08a9eb1a08a9
CONST	SEGMENT
__xmm@eb1a08a9eb1a08a9eb1a08a9eb1a08a9 DB 0a9H, 08H, 01aH, 0ebH, 0a9H, 08H
	DB	01aH, 0ebH, 0a9H, 08H, 01aH, 0ebH, 0a9H, 08H, 01aH, 0ebH
CONST	ENDS
;	COMDAT __xmm@e9cf12d0e9cf12d0e9cf12d0e9cf12d0
CONST	SEGMENT
__xmm@e9cf12d0e9cf12d0e9cf12d0e9cf12d0 DB 0d0H, 012H, 0cfH, 0e9H, 0d0H, 012H
	DB	0cfH, 0e9H, 0d0H, 012H, 0cfH, 0e9H, 0d0H, 012H, 0cfH, 0e9H
CONST	ENDS
;	COMDAT __xmm@e09ee565e09ee565e09ee565e09ee565
CONST	SEGMENT
__xmm@e09ee565e09ee565e09ee565e09ee565 DB 'e', 0e5H, 09eH, 0e0H, 'e', 0e5H
	DB	09eH, 0e0H, 'e', 0e5H, 09eH, 0e0H, 'e', 0e5H, 09eH, 0e0H
CONST	ENDS
;	COMDAT __xmm@80808080808080808080808080808080
CONST	SEGMENT
__xmm@80808080808080808080808080808080 DB 080H, 080H, 080H, 080H, 080H, 080H
	DB	080H, 080H, 080H, 080H, 080H, 080H, 080H, 080H, 080H, 080H
CONST	ENDS
;	COMDAT __xmm@80000000800000008000000080000000
CONST	SEGMENT
__xmm@80000000800000008000000080000000 DB 00H, 00H, 00H, 080H, 00H, 00H, 00H
	DB	080H, 00H, 00H, 00H, 080H, 00H, 00H, 00H, 080H
CONST	ENDS
;	COMDAT __xmm@1c5a1c5a1c5a1c5a1c5a1c5a1c5a1c5a
CONST	SEGMENT
__xmm@1c5a1c5a1c5a1c5a1c5a1c5a1c5a1c5a DB 'Z', 01cH, 'Z', 01cH, 'Z', 01cH
	DB	'Z', 01cH, 'Z', 01cH, 'Z', 01cH, 'Z', 01cH, 'Z', 01cH
CONST	ENDS
;	COMDAT __xmm@166f166f166f166f166f166f166f166f
CONST	SEGMENT
__xmm@166f166f166f166f166f166f166f166f DB 'o', 016H, 'o', 016H, 'o', 016H
	DB	'o', 016H, 'o', 016H, 'o', 016H, 'o', 016H, 'o', 016H
CONST	ENDS
;	COMDAT __xmm@12d0046b12d0046b12d0046b12d0046b
CONST	SEGMENT
__xmm@12d0046b12d0046b12d0046b12d0046b DB 'k', 04H, 0d0H, 012H, 'k', 04H, 0d0H
	DB	012H, 'k', 04H, 0d0H, 012H, 'k', 04H, 0d0H, 012H
CONST	ENDS
;	COMDAT __xmm@11c8f9c311c8f9c311c8f9c311c8f9c3
CONST	SEGMENT
__xmm@11c8f9c311c8f9c311c8f9c311c8f9c3 DB 0c3H, 0f9H, 0c8H, 011H, 0c3H, 0f9H
	DB	0c8H, 011H, 0c3H, 0f9H, 0c8H, 011H, 0c3H, 0f9H, 0c8H, 011H
CONST	ENDS
;	COMDAT __xmm@11c8e09e11c8e09e11c8e09e11c8e09e
CONST	SEGMENT
__xmm@11c8e09e11c8e09e11c8e09e11c8e09e DB 09eH, 0e0H, 0c8H, 011H, 09eH, 0e0H
	DB	0c8H, 011H, 09eH, 0e0H, 0c8H, 011H, 09eH, 0e0H, 0c8H, 011H
CONST	ENDS
;	COMDAT __xmm@08a914e808a914e808a914e808a914e8
CONST	SEGMENT
__xmm@08a914e808a914e808a914e808a914e8 DB 0e8H, 014H, 0a9H, 08H, 0e8H, 014H
	DB	0a9H, 08H, 0e8H, 014H, 0a9H, 08H, 0e8H, 014H, 0a9H, 08H
CONST	ENDS
;	COMDAT __xmm@01010000010100000101000001010000
CONST	SEGMENT
__xmm@01010000010100000101000001010000 DB 00H, 00H, 01H, 01H, 00H, 00H, 01H
	DB	01H, 00H, 00H, 01H, 01H, 00H, 00H, 01H, 01H
CONST	ENDS
;	COMDAT __xmm@00ff00ff00ff00ff00ff00ff00ff00ff
CONST	SEGMENT
__xmm@00ff00ff00ff00ff00ff00ff00ff00ff DB 0ffH, 00H, 0ffH, 00H, 0ffH, 00H
	DB	0ffH, 00H, 0ffH, 00H, 0ffH, 00H, 0ffH, 00H, 0ffH, 00H
CONST	ENDS
;	COMDAT __xmm@00080008000800080008000800080008
CONST	SEGMENT
__xmm@00080008000800080008000800080008 DB 08H, 00H, 08H, 00H, 08H, 00H, 08H
	DB	00H, 08H, 00H, 08H, 00H, 08H, 00H, 08H, 00H
CONST	ENDS
;	COMDAT __xmm@00000200000002000000020000000200
CONST	SEGMENT
__xmm@00000200000002000000020000000200 DB 00H, 02H, 00H, 00H, 00H, 02H, 00H
	DB	00H, 00H, 02H, 00H, 00H, 00H, 02H, 00H, 00H
CONST	ENDS
;	COMDAT __real@c2b40000
CONST	SEGMENT
__real@c2b40000 DD 0c2b40000r			; -90
CONST	ENDS
;	COMDAT __real@bf800000
CONST	SEGMENT
__real@bf800000 DD 0bf800000r			; -1
CONST	ENDS
;	COMDAT __real@477fff00
CONST	SEGMENT
__real@477fff00 DD 0477fff00r			; 65535
CONST	ENDS
;	COMDAT __real@43fa0000
CONST	SEGMENT
__real@43fa0000 DD 043fa0000r			; 500
CONST	ENDS
;	COMDAT __real@437f0000
CONST	SEGMENT
__real@437f0000 DD 0437f0000r			; 255
CONST	ENDS
;	COMDAT __real@42c80000
CONST	SEGMENT
__real@42c80000 DD 042c80000r			; 100
CONST	ENDS
;	COMDAT __real@42b40000
CONST	SEGMENT
__real@42b40000 DD 042b40000r			; 90
CONST	ENDS
;	COMDAT __real@42480000
CONST	SEGMENT
__real@42480000 DD 042480000r			; 50
CONST	ENDS
;	COMDAT __real@42340000
CONST	SEGMENT
__real@42340000 DD 042340000r			; 45
CONST	ENDS
;	COMDAT __real@41200000
CONST	SEGMENT
__real@41200000 DD 041200000r			; 10
CONST	ENDS
;	COMDAT __real@40e00000
CONST	SEGMENT
__real@40e00000 DD 040e00000r			; 7
CONST	ENDS
;	COMDAT __real@40a00000
CONST	SEGMENT
__real@40a00000 DD 040a00000r			; 5
CONST	ENDS
;	COMDAT __real@40800000
CONST	SEGMENT
__real@40800000 DD 040800000r			; 4
CONST	ENDS
;	COMDAT __real@40400000
CONST	SEGMENT
__real@40400000 DD 040400000r			; 3
CONST	ENDS
;	COMDAT __real@40200000
CONST	SEGMENT
__real@40200000 DD 040200000r			; 2.5
CONST	ENDS
;	COMDAT __real@40000000
CONST	SEGMENT
__real@40000000 DD 040000000r			; 2
CONST	ENDS
;	COMDAT __real@3ff0000000000000
CONST	SEGMENT
__real@3ff0000000000000 DQ 03ff0000000000000r	; 1
CONST	ENDS
;	COMDAT __real@3fe8a3d70a3d70a4
CONST	SEGMENT
__real@3fe8a3d70a3d70a4 DQ 03fe8a3d70a3d70a4r	; 0.77
CONST	ENDS
;	COMDAT __real@3fe0000000000000
CONST	SEGMENT
__real@3fe0000000000000 DQ 03fe0000000000000r	; 0.5
CONST	ENDS
;	COMDAT __real@3faaaaab
CONST	SEGMENT
__real@3faaaaab DD 03faaaaabr			; 1.33333
CONST	ENDS
;	COMDAT __real@3f800000
CONST	SEGMENT
__real@3f800000 DD 03f800000r			; 1
CONST	ENDS
;	COMDAT __real@3f4ccccd
CONST	SEGMENT
__real@3f4ccccd DD 03f4ccccdr			; 0.8
CONST	ENDS
;	COMDAT __real@3f000000
CONST	SEGMENT
__real@3f000000 DD 03f000000r			; 0.5
CONST	ENDS
;	COMDAT __real@3dcccccd
CONST	SEGMENT
__real@3dcccccd DD 03dcccccdr			; 0.1
CONST	ENDS
;	COMDAT __real@3db851ec
CONST	SEGMENT
__real@3db851ec DD 03db851ecr			; 0.09
CONST	ENDS
;	COMDAT __real@3d4ccccd
CONST	SEGMENT
__real@3d4ccccd DD 03d4ccccdr			; 0.05
CONST	ENDS
;	COMDAT __real@3d03126f
CONST	SEGMENT
__real@3d03126f DD 03d03126fr			; 0.032
CONST	ENDS
;	COMDAT __real@3c8efa35
CONST	SEGMENT
__real@3c8efa35 DD 03c8efa35r			; 0.0174533
CONST	ENDS
;	COMDAT __real@3c23d70a
CONST	SEGMENT
__real@3c23d70a DD 03c23d70ar			; 0.01
CONST	ENDS
;	COMDAT __real@3a83126f
CONST	SEGMENT
__real@3a83126f DD 03a83126fr			; 0.001
CONST	ENDS
;	COMDAT __real@00000000
CONST	SEGMENT
__real@00000000 DD 000000000r			; 0
CONST	ENDS
;	COMDAT ?shift_table@?1??stbi__shiftsigned@@YAHIHH@Z@4PAIA
_DATA	SEGMENT
?shift_table@?1??stbi__shiftsigned@@YAHIHH@Z@4PAIA DD 00H ; `stbi__shiftsigned'::`2'::shift_table
	DD	00H
	DD	00H
	DD	01H
	DD	00H
	DD	02H
	DD	04H
	DD	06H
	DD	00H
_DATA	ENDS
;	COMDAT ?mul_table@?1??stbi__shiftsigned@@YAHIHH@Z@4PAIA
_DATA	SEGMENT
?mul_table@?1??stbi__shiftsigned@@YAHIHH@Z@4PAIA DD 00H	; `stbi__shiftsigned'::`2'::mul_table
	DD	0ffH
	DD	055H
	DD	049H
	DD	011H
	DD	021H
	DD	041H
	DD	081H
	DD	01H
_DATA	ENDS
;	COMDAT ?invalid_chunk@?JM@??stbi__parse_png_file@@YAHPEAUstbi__png@@HH@Z@4PADA
_DATA	SEGMENT
?invalid_chunk@?JM@??stbi__parse_png_file@@YAHPEAUstbi__png@@HH@Z@4PADA DB 'X'
	DB	'XXX PNG chunk not known', 00H		; `stbi__parse_png_file'::`156'::invalid_chunk
_DATA	ENDS
;	COMDAT ?png_sig@?1??stbi__check_png_header@@YAHPEAUstbi__context@@@Z@4QBEB
CONST	SEGMENT
?png_sig@?1??stbi__check_png_header@@YAHPEAUstbi__context@@@Z@4QBEB DB 089H ; `stbi__check_png_header'::`2'::png_sig
	DB	050H
	DB	04eH
	DB	047H
	DB	0dH
	DB	0aH
	DB	01aH
	DB	0aH
CONST	ENDS
;	COMDAT ?length_dezigzag@?1??stbi__compute_huffman_codes@@YAHPEAUstbi__zbuf@@@Z@4QBEB
CONST	SEGMENT
?length_dezigzag@?1??stbi__compute_huffman_codes@@YAHPEAUstbi__zbuf@@@Z@4QBEB DB 010H ; `stbi__compute_huffman_codes'::`2'::length_dezigzag
	DB	011H
	DB	012H
	DB	00H
	DB	08H
	DB	07H
	DB	09H
	DB	06H
	DB	0aH
	DB	05H
	DB	0bH
	DB	04H
	DB	0cH
	DB	03H
	DB	0dH
	DB	02H
	DB	0eH
	DB	01H
	DB	0fH
CONST	ENDS
;	COMDAT ?rgb@?BG@??stbi__process_frame_header@@YAHPEAUstbi__jpeg@@H@Z@4QBEB
CONST	SEGMENT
?rgb@?BG@??stbi__process_frame_header@@YAHPEAUstbi__jpeg@@H@Z@4QBEB DB 052H ; `stbi__process_frame_header'::`22'::rgb
	DB	047H
	DB	042H
CONST	ENDS
;	COMDAT ?tag@?DG@??stbi__process_marker@@YAHPEAUstbi__jpeg@@H@Z@4QBEB
CONST	SEGMENT
?tag@?DG@??stbi__process_marker@@YAHPEAUstbi__jpeg@@H@Z@4QBEB DB 041H ; `stbi__process_marker'::`54'::tag
	DB	064H
	DB	06fH
	DB	062H
	DB	065H
	DB	00H
CONST	ENDS
;	COMDAT ?tag@?CN@??stbi__process_marker@@YAHPEAUstbi__jpeg@@H@Z@4QBEB
CONST	SEGMENT
?tag@?CN@??stbi__process_marker@@YAHPEAUstbi__jpeg@@H@Z@4QBEB DB 04aH ; `stbi__process_marker'::`45'::tag
	DB	046H
	DB	049H
	DB	046H
	DB	00H
CONST	ENDS
_DATA	SEGMENT
?stbi__stdio_callbacks@@3Ustbi_io_callbacks@@A DQ FLAT:?stbi__stdio_read@@YAHPEAXPEADH@Z ; stbi__stdio_callbacks
	DQ	FLAT:?stbi__stdio_skip@@YAXPEAXH@Z
	DQ	FLAT:?stbi__stdio_eof@@YAHPEAX@Z
?stbi__l2h_gamma@@3MA DD 0400ccccdr		; 2.2	; stbi__l2h_gamma
?stbi__l2h_scale@@3MA DD 03f800000r		; 1	; stbi__l2h_scale
?stbi__h2l_gamma_i@@3MA DD 03ee8ba2er		; 0.454545 ; stbi__h2l_gamma_i
?stbi__h2l_scale_i@@3MA DD 03f800000r		; 1	; stbi__h2l_scale_i
?first_row_filter@@3PAEA DB 00H				; first_row_filter
	DB	01H
	DB	00H
	DB	05H
	DB	01H
_DATA	ENDS
;	COMDAT xdata
xdata	SEGMENT
$unwind$?sin@@YAMM@Z DD 010a01H
	DD	0420aH
xdata	ENDS
;	COMDAT xdata
xdata	SEGMENT
$unwind$?pow@@YAMMM@Z DD 011001H
	DD	04210H
xdata	ENDS
;	COMDAT xdata
xdata	SEGMENT
$unwind$?ldexp@@YAMMH@Z DD 010e01H
	DD	0420eH
xdata	ENDS
;	COMDAT xdata
xdata	SEGMENT
$unwind$?cos@@YAMM@Z DD 010a01H
	DD	0420aH
xdata	ENDS
;	COMDAT xdata
xdata	SEGMENT
$unwind$sprintf DD 011801H
	DD	06218H
xdata	ENDS
;	COMDAT xdata
xdata	SEGMENT
$unwind$_vsprintf_l DD 011801H
	DD	06218H
xdata	ENDS
;	COMDAT xdata
xdata	SEGMENT
$unwind$_vsnprintf_l DD 011801H
	DD	08218H
xdata	ENDS
;	COMDAT xdata
xdata	SEGMENT
$unwind$fprintf DD 011801H
	DD	06218H
xdata	ENDS
;	COMDAT xdata
xdata	SEGMENT
$unwind$_vfprintf_l DD 011801H
	DD	06218H
xdata	ENDS
xdata	SEGMENT
$unwind$HMM_ToRad DD 010a01H
	DD	0220aH
$unwind$HMM_SinF DD 010a01H
	DD	0420aH
$unwind$HMM_CosF DD 010a01H
	DD	0420aH
$unwind$HMM_TanF DD 010a01H
	DD	0420aH
$unwind$HMM_SqrtF DD 010a01H
	DD	0a20aH
$unwind$HMM_InvSqrtF DD 010a01H
	DD	0620aH
$unwind$HMM_V2 DD 011f19H
	DD	02210H
	DD	imagerel __GSHandlerCheck
	DD	08H
$unwind$HMM_V3 DD 032c19H
	DD	07019421dH
	DD	06018H
	DD	imagerel __GSHandlerCheck
	DD	010H
$unwind$HMM_V4V DD 012319H
	DD	06214H
	DD	imagerel __GSHandlerCheck
	DD	020H
$unwind$HMM_AddV3 DD 032419H
	DD	070114215H
	DD	06010H
	DD	imagerel __GSHandlerCheck
	DD	010H
$unwind$HMM_SubV3 DD 032419H
	DD	070114215H
	DD	06010H
	DD	imagerel __GSHandlerCheck
	DD	010H
$unwind$HMM_MulV3F DD 032519H
	DD	070124216H
	DD	06011H
	DD	imagerel __GSHandlerCheck
	DD	010H
$unwind$HMM_DivV3F DD 032519H
	DD	070124216H
	DD	06011H
	DD	imagerel __GSHandlerCheck
	DD	010H
$unwind$HMM_Cross DD 032419H
	DD	070114215H
	DD	06010H
	DD	imagerel __GSHandlerCheck
	DD	010H
$unwind$HMM_NormV3 DD 042219H
	DD	0110113H
	DD	0600b700cH
	DD	imagerel __GSHandlerCheck
	DD	070H
$unwind$HMM_LinearCombineV4M4 DD 022819H
	DD	01b0116H
	DD	imagerel __GSHandlerCheck
	DD	0c0H
$unwind$HMM_M4D DD 032019H
	DD	0700da211H
	DD	0600cH
	DD	imagerel __GSHandlerCheck
	DD	040H
$unwind$HMM_MulM4 DD 042a19H
	DD	0470118H
	DD	060107011H
	DD	imagerel __GSHandlerCheck
	DD	0220H
$unwind$HMM_MulM4V4 DD 042a19H
	DD	0150118H
	DD	060107011H
	DD	imagerel __GSHandlerCheck
	DD	090H
$unwind$HMM_Perspective_RH_NO DD 042f19H
	DD	0110120H
	DD	060187019H
	DD	imagerel __GSHandlerCheck
	DD	070H
$unwind$HMM_Translate DD 042519H
	DD	01f0113H
	DD	0600b700cH
	DD	imagerel __GSHandlerCheck
	DD	0e0H
$unwind$HMM_Rotate_RH DD 042b19H
	DD	0270119H
	DD	060117012H
	DD	imagerel __GSHandlerCheck
	DD	0120H
$unwind$HMM_Scale DD 042519H
	DD	01f0113H
	DD	0600b700cH
	DD	imagerel __GSHandlerCheck
	DD	0e0H
$unwind$_HMM_LookAt DD 042f19H
	DD	01b011dH
	DD	060157016H
	DD	imagerel __GSHandlerCheck
	DD	0c0H
$unwind$HMM_LookAt_RH DD 042f19H
	DD	04b011dH
	DD	060157016H
	DD	imagerel __GSHandlerCheck
	DD	0240H
$unwind$?_stack_resize@@YAHPEAPEAXII@Z DD 011201H
	DD	0c212H
$unwind$?_stack_fit@@YAPEAXPEAPEAXII@Z DD 011201H
	DD	08212H
$unwind$?_stack_push@@YAPEAXPEAPEAXII@Z DD 011201H
	DD	08212H
$unwind$stbi_load_from_memory DD 022c19H
	DD	025011aH
	DD	imagerel __GSHandlerCheck
	DD	0110H
$unwind$stbi_load_from_callbacks DD 022d19H
	DD	025011bH
	DD	imagerel __GSHandlerCheck
	DD	0110H
$unwind$stbi_load DD 011801H
	DD	0a218H
$unwind$stbi_load_from_file DD 022d19H
	DD	027011bH
	DD	imagerel __GSHandlerCheck
	DD	0120H
$unwind$stbi_load_gif_from_memory DD 022c19H
	DD	029011aH
	DD	imagerel __GSHandlerCheck
	DD	0130H
$unwind$stbi_load_16_from_memory DD 022c19H
	DD	025011aH
	DD	imagerel __GSHandlerCheck
	DD	0110H
$unwind$stbi_load_16_from_callbacks DD 022d19H
	DD	025011bH
	DD	imagerel __GSHandlerCheck
	DD	0110H
$unwind$stbi_load_16 DD 011801H
	DD	0a218H
$unwind$stbi_load_from_file_16 DD 022d19H
	DD	027011bH
	DD	imagerel __GSHandlerCheck
	DD	0120H
$unwind$stbi_loadf_from_memory DD 022c19H
	DD	025011aH
	DD	imagerel __GSHandlerCheck
	DD	0110H
$unwind$stbi_loadf_from_callbacks DD 022d19H
	DD	025011bH
	DD	imagerel __GSHandlerCheck
	DD	0110H
$unwind$stbi_loadf DD 011801H
	DD	0a218H
$unwind$stbi_loadf_from_file DD 022d19H
	DD	025011bH
	DD	imagerel __GSHandlerCheck
	DD	0110H
$unwind$stbi_is_hdr_from_callbacks DD 022319H
	DD	0230111H
	DD	imagerel __GSHandlerCheck
	DD	0100H
$unwind$stbi_is_hdr_from_memory DD 022219H
	DD	0230110H
	DD	imagerel __GSHandlerCheck
	DD	0100H
$unwind$stbi_is_hdr DD 010901H
	DD	06209H
$unwind$stbi_is_hdr_from_file DD 021e19H
	DD	025010cH
	DD	imagerel __GSHandlerCheck
	DD	0110H
$unwind$stbi_image_free DD 010901H
	DD	04209H
$unwind$stbi_info_from_memory DD 022c19H
	DD	023011aH
	DD	imagerel __GSHandlerCheck
	DD	0100H
$unwind$stbi_info_from_callbacks DD 022d19H
	DD	023011bH
	DD	imagerel __GSHandlerCheck
	DD	0100H
$unwind$stbi_is_16_bit_from_memory DD 022219H
	DD	0230110H
	DD	imagerel __GSHandlerCheck
	DD	0100H
$unwind$stbi_is_16_bit_from_callbacks DD 022319H
	DD	0230111H
	DD	imagerel __GSHandlerCheck
	DD	0100H
$unwind$stbi_info DD 011801H
	DD	06218H
$unwind$stbi_info_from_file DD 022d19H
	DD	025011bH
	DD	imagerel __GSHandlerCheck
	DD	0110H
$unwind$stbi_is_16_bit DD 010901H
	DD	06209H
$unwind$stbi_is_16_bit_from_file DD 021e19H
	DD	025010cH
	DD	imagerel __GSHandlerCheck
	DD	0110H
$unwind$stbi_zlib_decode_malloc_guesssize DD 023219H
	DD	020d0120H
	DD	imagerel __GSHandlerCheck
	DD	01050H
$unwind$stbi_zlib_decode_malloc_guesssize_headerflag DD 023219H
	DD	020d0120H
	DD	imagerel __GSHandlerCheck
	DD	01050H
$unwind$stbi_zlib_decode_malloc DD 011201H
	DD	04212H
$unwind$stbi_zlib_decode_buffer DD 023219H
	DD	020b0120H
	DD	imagerel __GSHandlerCheck
	DD	01040H
$unwind$stbi_zlib_decode_noheader_malloc DD 022d19H
	DD	020d011bH
	DD	imagerel __GSHandlerCheck
	DD	01050H
$unwind$stbi_zlib_decode_noheader_buffer DD 023219H
	DD	020b0120H
	DD	imagerel __GSHandlerCheck
	DD	01040H
$unwind$?stbi__cpuid3@@YAHXZ DD 021519H
	DD	030023206H
	DD	imagerel __GSHandlerCheck
	DD	010H
$unwind$?stbi__sse2_available@@YAHXZ DD 010401H
	DD	06204H
$unwind$?stbi__refill_buffer@@YAXPEAUstbi__context@@@Z DD 010901H
	DD	06209H
$unwind$?stbi__start_mem@@YAXPEAUstbi__context@@PEBEH@Z DD 011301H
	DD	02213H
$unwind$?stbi__start_callbacks@@YAXPEAUstbi__context@@PEAUstbi_io_callbacks@@PEAX@Z DD 031501H
	DD	070116215H
	DD	06010H
$unwind$?stbi__stdio_read@@YAHPEAXPEADH@Z DD 011301H
	DD	04213H
$unwind$?stbi__stdio_skip@@YAXPEAXH@Z DD 010d01H
	DD	0620dH
$unwind$?stbi__stdio_eof@@YAHPEAX@Z DD 010901H
	DD	06209H
$unwind$?stbi__start_file@@YAXPEAUstbi__context@@PEAU_iobuf@@@Z DD 010e01H
	DD	0420eH
$unwind$?stbi__jpeg_test@@YAHPEAUstbi__context@@@Z DD 010901H
	DD	06209H
$unwind$?stbi__jpeg_load@@YAPEAXPEAUstbi__context@@PEAH11HPEAUstbi__result_info@@@Z DD 011801H
	DD	0a218H
$unwind$?stbi__jpeg_info@@YAHPEAUstbi__context@@PEAH11@Z DD 011801H
	DD	06218H
$unwind$?stbi__png_test@@YAHPEAUstbi__context@@@Z DD 010901H
	DD	06209H
$unwind$?stbi__png_load@@YAPEAXPEAUstbi__context@@PEAH11HPEAUstbi__result_info@@@Z DD 011801H
	DD	0c218H
$unwind$?stbi__png_info@@YAHPEAUstbi__context@@PEAH11@Z DD 011801H
	DD	0a218H
$unwind$?stbi__png_is16@@YAHPEAUstbi__context@@@Z DD 010901H
	DD	0a209H
$unwind$?stbi__bmp_test@@YAHPEAUstbi__context@@@Z DD 010901H
	DD	06209H
$unwind$?stbi__bmp_load@@YAPEAXPEAUstbi__context@@PEAH11HPEAUstbi__result_info@@@Z DD 022d19H
	DD	0ad011bH
	DD	imagerel __GSHandlerCheck
	DD	0550H
$unwind$?stbi__bmp_info@@YAHPEAUstbi__context@@PEAH11@Z DD 012719H
	DD	0c218H
	DD	imagerel __GSHandlerCheck
	DD	058H
$unwind$?stbi__tga_test@@YAHPEAUstbi__context@@@Z DD 010901H
	DD	06209H
$unwind$?stbi__tga_load@@YAPEAXPEAUstbi__context@@PEAH11HPEAUstbi__result_info@@@Z DD 031c01H
	DD	020011cH
	DD	07015H
$unwind$?stbi__tga_info@@YAHPEAUstbi__context@@PEAH11@Z DD 011801H
	DD	0a218H
$unwind$?stbi__psd_test@@YAHPEAUstbi__context@@@Z DD 010901H
	DD	06209H
$unwind$?stbi__psd_load@@YAPEAXPEAUstbi__context@@PEAH11HPEAUstbi__result_info@@H@Z DD 021b01H
	DD	01f011bH
$unwind$?stbi__psd_info@@YAHPEAUstbi__context@@PEAH11@Z DD 011801H
	DD	06218H
$unwind$?stbi__psd_is16@@YAHPEAUstbi__context@@@Z DD 010901H
	DD	06209H
$unwind$?stbi__hdr_test@@YAHPEAUstbi__context@@@Z DD 010901H
	DD	06209H
$unwind$?stbi__hdr_load@@YAPEAMPEAUstbi__context@@PEAH11HPEAUstbi__result_info@@@Z DD 022d19H
	DD	09d011bH
	DD	imagerel __GSHandlerCheck
	DD	04d0H
$unwind$?stbi__hdr_info@@YAHPEAUstbi__context@@PEAH11@Z DD 022d19H
	DD	089011bH
	DD	imagerel __GSHandlerCheck
	DD	0430H
$unwind$?stbi__pic_test@@YAHPEAUstbi__context@@@Z DD 010901H
	DD	06209H
$unwind$?stbi__pic_load@@YAPEAXPEAUstbi__context@@PEAH11HPEAUstbi__result_info@@@Z DD 011801H
	DD	0c218H
$unwind$?stbi__pic_info@@YAHPEAUstbi__context@@PEAH11@Z DD 012719H
	DD	0e218H
	DD	imagerel __GSHandlerCheck
	DD	060H
$unwind$?stbi__gif_test@@YAHPEAUstbi__context@@@Z DD 010901H
	DD	06209H
$unwind$?stbi__gif_load@@YAPEAXPEAUstbi__context@@PEAH11HPEAUstbi__result_info@@@Z DD 023319H
	DD	011190121H
	DD	imagerel __GSHandlerCheck
	DD	088b0H
$unwind$?stbi__load_gif_main@@YAPEAXPEAUstbi__context@@PEAPEAHPEAH222H@Z DD 023319H
	DD	0111f0121H
	DD	imagerel __GSHandlerCheck
	DD	088e0H
$unwind$?stbi__gif_info@@YAHPEAUstbi__context@@PEAH11@Z DD 011801H
	DD	04218H
$unwind$?stbi__pnm_test@@YAHPEAUstbi__context@@@Z DD 010901H
	DD	06209H
$unwind$?stbi__pnm_load@@YAPEAXPEAUstbi__context@@PEAH11HPEAUstbi__result_info@@@Z DD 011801H
	DD	0a218H
$unwind$?stbi__pnm_info@@YAHPEAUstbi__context@@PEAH11@Z DD 011801H
	DD	06218H
$unwind$?stbi__pnm_is16@@YAHPEAUstbi__context@@@Z DD 010901H
	DD	04209H
$unwind$?stbi__malloc@@YAPEAX_K@Z DD 010901H
	DD	04209H
$unwind$?stbi__addsizes_valid@@YAHHH@Z DD 010c01H
	DD	0220cH
$unwind$?stbi__mul2sizes_valid@@YAHHH@Z DD 010c01H
	DD	0220cH
$unwind$?stbi__mad2sizes_valid@@YAHHHH@Z DD 011101H
	DD	06211H
$unwind$?stbi__mad3sizes_valid@@YAHHHHH@Z DD 011601H
	DD	06216H
$unwind$?stbi__mad4sizes_valid@@YAHHHHHH@Z DD 011601H
	DD	06216H
$unwind$?stbi__malloc_mad2@@YAPEAXHHH@Z DD 011101H
	DD	04211H
$unwind$?stbi__malloc_mad3@@YAPEAXHHHH@Z DD 011601H
	DD	04216H
$unwind$?stbi__malloc_mad4@@YAPEAXHHHHH@Z DD 011601H
	DD	06216H
$unwind$?stbi__addints_valid@@YAHHH@Z DD 010c01H
	DD	0220cH
$unwind$?stbi__mul2shorts_valid@@YAHHH@Z DD 010c01H
	DD	0420cH
$unwind$?stbi__ldr_to_hdr@@YAPEAMPEAEHHH@Z DD 011701H
	DD	0a217H
$unwind$?stbi__hdr_to_ldr@@YAPEAEPEAMHHH@Z DD 011701H
	DD	08217H
$unwind$?stbi__load_main@@YAPEAXPEAUstbi__context@@PEAH11HPEAUstbi__result_info@@H@Z DD 011801H
	DD	0a218H
$unwind$?stbi__convert_16_to_8@@YAPEAEPEAGHHH@Z DD 011701H
	DD	08217H
$unwind$?stbi__convert_8_to_16@@YAPEAGPEAEHHH@Z DD 011701H
	DD	08217H
$unwind$?stbi__vertical_flip@@YAXPEAXHHH@Z DD 022c19H
	DD	010f011aH
	DD	imagerel __GSHandlerCheck
	DD	0860H
$unwind$?stbi__vertical_flip_slices@@YAXPEAXHHHH@Z DD 011701H
	DD	06217H
$unwind$?stbi__load_and_postprocess_8bit@@YAPEAEPEAUstbi__context@@PEAH11H@Z DD 022a19H
	DD	011011bH
	DD	imagerel __GSHandlerCheck
	DD	070H
$unwind$?stbi__load_and_postprocess_16bit@@YAPEAGPEAUstbi__context@@PEAH11H@Z DD 022a19H
	DD	011011bH
	DD	imagerel __GSHandlerCheck
	DD	070H
$unwind$?stbi__float_postprocess@@YAXPEAMPEAH11H@Z DD 011801H
	DD	06218H
$unwind$?stbi__fopen@@YAPEAU_iobuf@@PEBD0@Z DD 010e01H
	DD	0620eH
$unwind$?stbi__loadf_main@@YAPEAMPEAUstbi__context@@PEAH11H@Z DD 012719H
	DD	0c218H
	DD	imagerel __GSHandlerCheck
	DD	058H
$unwind$?stbi__get8@@YAEPEAUstbi__context@@@Z DD 010901H
	DD	06209H
$unwind$?stbi__at_eof@@YAHPEAUstbi__context@@@Z DD 010901H
	DD	06209H
$unwind$?stbi__skip@@YAXPEAUstbi__context@@H@Z DD 010d01H
	DD	0620dH
$unwind$?stbi__getn@@YAHPEAUstbi__context@@PEAEH@Z DD 011301H
	DD	06213H
$unwind$?stbi__get16be@@YAHPEAUstbi__context@@@Z DD 010901H
	DD	06209H
$unwind$?stbi__get32be@@YAIPEAUstbi__context@@@Z DD 010901H
	DD	06209H
$unwind$?stbi__get16le@@YAHPEAUstbi__context@@@Z DD 010901H
	DD	06209H
$unwind$?stbi__get32le@@YAIPEAUstbi__context@@@Z DD 010901H
	DD	06209H
$unwind$?stbi__convert_format@@YAPEAEPEAEHHII@Z DD 011701H
	DD	0c217H
$unwind$?stbi__convert_format16@@YAPEAGPEAGHHII@Z DD 011701H
	DD	0c217H
$unwind$?stbi__build_huffman@@YAHPEAUstbi__huffman@@PEAH@Z DD 010e01H
	DD	0820eH
$unwind$?stbi__build_fast_ac@@YAXPEAFPEAUstbi__huffman@@@Z DD 010e01H
	DD	0620eH
$unwind$?stbi__grow_buffer_unsafe@@YAXPEAUstbi__jpeg@@@Z DD 010901H
	DD	06209H
$unwind$?stbi__jpeg_huff_decode@@YAHPEAUstbi__jpeg@@PEAUstbi__huffman@@@Z DD 010e01H
	DD	0a20eH
$unwind$?stbi__extend_receive@@YAHPEAUstbi__jpeg@@H@Z DD 010d01H
	DD	0620dH
$unwind$?stbi__jpeg_get_bits@@YAHPEAUstbi__jpeg@@H@Z DD 010d01H
	DD	0620dH
$unwind$?stbi__jpeg_get_bit@@YAHPEAUstbi__jpeg@@@Z DD 010901H
	DD	06209H
$unwind$?stbi__jpeg_decode_block@@YAHPEAUstbi__jpeg@@QEAFPEAUstbi__huffman@@2PEAFHPEAG@Z DD 011801H
	DD	0a218H
$unwind$?stbi__jpeg_decode_block_prog_dc@@YAHPEAUstbi__jpeg@@QEAFPEAUstbi__huffman@@H@Z DD 011801H
	DD	08218H
$unwind$?stbi__jpeg_decode_block_prog_ac@@YAHPEAUstbi__jpeg@@QEAFPEAUstbi__huffman@@PEAF@Z DD 021b01H
	DD	011011bH
$unwind$?stbi__idct_block@@YAXPEAEHQEAF@Z DD 022719H
	DD	0390115H
	DD	imagerel __GSHandlerCheck
	DD	01b0H
$unwind$?stbi__idct_simd@@YAXPEAEHQEAF@Z DD 021b01H
	DD	036b011bH
$unwind$?stbi__get_marker@@YAEPEAUstbi__jpeg@@@Z DD 010901H
	DD	06209H
$unwind$?stbi__jpeg_reset@@YAXPEAUstbi__jpeg@@@Z DD 010901H
	DD	02209H
$unwind$?stbi__parse_entropy_coded_data@@YAHPEAUstbi__jpeg@@@Z DD 021e19H
	DD	03f010cH
	DD	imagerel __GSHandlerCheck
	DD	01e0H
$unwind$?stbi__jpeg_dequantize@@YAXPEAFPEAG@Z DD 010e01H
	DD	0220eH
$unwind$?stbi__jpeg_finish@@YAXPEAUstbi__jpeg@@@Z DD 010901H
	DD	08209H
$unwind$?stbi__process_marker@@YAHPEAUstbi__jpeg@@H@Z DD 022219H
	DD	01b0110H
	DD	imagerel __GSHandlerCheck
	DD	0c0H
$unwind$?stbi__process_scan_header@@YAHPEAUstbi__jpeg@@@Z DD 010901H
	DD	08209H
$unwind$?stbi__free_jpeg_components@@YAHPEAUstbi__jpeg@@HH@Z DD 011201H
	DD	06212H
$unwind$?stbi__process_frame_header@@YAHPEAUstbi__jpeg@@H@Z DD 010d01H
	DD	0c20dH
$unwind$?stbi__decode_jpeg_header@@YAHPEAUstbi__jpeg@@H@Z DD 010d01H
	DD	0620dH
$unwind$?stbi__skip_jpeg_junk_at_end@@YAEPEAUstbi__jpeg@@@Z DD 010901H
	DD	06209H
$unwind$?stbi__decode_jpeg_image@@YAHPEAUstbi__jpeg@@@Z DD 010901H
	DD	06209H
$unwind$?stbi__resample_row_v_2@@YAPEAEPEAE00HH@Z DD 011801H
	DD	02218H
$unwind$?stbi__resample_row_h_2@@YAPEAEPEAE00HH@Z DD 011801H
	DD	02218H
$unwind$?stbi__resample_row_hv_2@@YAPEAEPEAE00HH@Z DD 011801H
	DD	02218H
$unwind$?stbi__resample_row_hv_2_simd@@YAPEAEPEAE00HH@Z DD 021b01H
	DD	063011bH
$unwind$?stbi__resample_row_generic@@YAPEAEPEAE00HH@Z DD 011801H
	DD	02218H
$unwind$?stbi__YCbCr_to_RGB_row@@YAXPEAEPEBE11HH@Z DD 011801H
	DD	04218H
$unwind$?stbi__YCbCr_to_RGB_simd@@YAXPEAEPEBE11HH@Z DD 021b01H
	DD	08d011bH
$unwind$?stbi__setup_jpeg@@YAXPEAUstbi__jpeg@@@Z DD 010901H
	DD	04209H
$unwind$?stbi__cleanup_jpeg@@YAXPEAUstbi__jpeg@@@Z DD 010901H
	DD	04209H
$unwind$?stbi__blinn_8x8@@YAEEE@Z DD 010c01H
	DD	0220cH
$unwind$?load_jpeg_image@@YAPEAEPEAUstbi__jpeg@@PEAH11H@Z DD 022d19H
	DD	03d011bH
	DD	imagerel __GSHandlerCheck
	DD	01d0H
$unwind$?stbi__jpeg_info_raw@@YAHPEAUstbi__jpeg@@PEAH11@Z DD 011801H
	DD	06218H
$unwind$?stbi__bit_reverse@@YAHHH@Z DD 010c01H
	DD	0420cH
$unwind$?stbi__zbuild_huffman@@YAHPEAUstbi__zhuffman@@PEBEH@Z DD 022819H
	DD	01d0116H
	DD	imagerel __GSHandlerCheck
	DD	0d0H
$unwind$?stbi__zeof@@YAHPEAUstbi__zbuf@@@Z DD 010901H
	DD	02209H
$unwind$?stbi__zget8@@YAEPEAUstbi__zbuf@@@Z DD 010901H
	DD	06209H
$unwind$?stbi__fill_bits@@YAXPEAUstbi__zbuf@@@Z DD 010901H
	DD	06209H
$unwind$?stbi__zreceive@@YAIPEAUstbi__zbuf@@H@Z DD 010d01H
	DD	0620dH
$unwind$?stbi__zhuffman_decode_slowpath@@YAHPEAUstbi__zbuf@@PEAUstbi__zhuffman@@@Z DD 010e01H
	DD	0820eH
$unwind$?stbi__zhuffman_decode@@YAHPEAUstbi__zbuf@@PEAUstbi__zhuffman@@@Z DD 010e01H
	DD	0620eH
$unwind$?stbi__zexpand@@YAHPEAUstbi__zbuf@@PEADH@Z DD 011301H
	DD	08213H
$unwind$?stbi__parse_huffman_block@@YAHPEAUstbi__zbuf@@@Z DD 010901H
	DD	08209H
$unwind$?stbi__compute_huffman_codes@@YAHPEAUstbi__zbuf@@@Z DD 021e19H
	DD	0149010cH
	DD	imagerel __GSHandlerCheck
	DD	0a30H
$unwind$?stbi__parse_uncompressed_block@@YAHPEAUstbi__zbuf@@@Z DD 010901H
	DD	06209H
$unwind$?stbi__parse_zlib_header@@YAHPEAUstbi__zbuf@@@Z DD 010901H
	DD	06209H
$unwind$?stbi__parse_zlib@@YAHPEAUstbi__zbuf@@H@Z DD 010d01H
	DD	0620dH
$unwind$?stbi__do_zlib@@YAHPEAUstbi__zbuf@@PEADHHH@Z DD 011801H
	DD	04218H
$unwind$?stbi__get_chunk_header@@YA?AUstbi__pngchunk@@PEAUstbi__context@@@Z DD 010901H
	DD	06209H
$unwind$?stbi__check_png_header@@YAHPEAUstbi__context@@@Z DD 010901H
	DD	06209H
$unwind$?stbi__paeth@@YAHHHH@Z DD 011101H
	DD	06211H
$unwind$?stbi__create_png_alpha_expand8@@YAXPEAE0IH@Z DD 011801H
	DD	06218H
$unwind$?stbi__create_png_image_raw@@YAHPEAUstbi__png@@PEAEIHIIHH@Z DD 021b01H
	DD	01b011bH
$unwind$?stbi__create_png_image@@YAHPEAUstbi__png@@PEAEIHHHH@Z DD 022d19H
	DD	023011bH
	DD	imagerel __GSHandlerCheck
	DD	0100H
$unwind$?stbi__compute_transparency@@YAHPEAUstbi__png@@QEAEH@Z DD 011301H
	DD	08213H
$unwind$?stbi__compute_transparency16@@YAHPEAUstbi__png@@QEAGH@Z DD 011301H
	DD	08213H
$unwind$?stbi__expand_png_palette@@YAHPEAUstbi__png@@PEAEHH@Z DD 011801H
	DD	0a218H
$unwind$?stbi__de_iphone@@YAXPEAUstbi__png@@@Z DD 010901H
	DD	0a209H
$unwind$?stbi__parse_png_file@@YAHPEAUstbi__png@@HH@Z DD 032819H
	DD	09c0116H
	DD	0700fH
	DD	imagerel __GSHandlerCheck
	DD	04d0H
$unwind$?stbi__do_png@@YAPEAXPEAUstbi__png@@PEAH11HPEAUstbi__result_info@@@Z DD 011801H
	DD	08218H
$unwind$?stbi__png_info_raw@@YAHPEAUstbi__png@@PEAH11@Z DD 011801H
	DD	04218H
$unwind$?stbi__bmp_test_raw@@YAHPEAUstbi__context@@@Z DD 010901H
	DD	06209H
$unwind$?stbi__high_bit@@YAHI@Z DD 010801H
	DD	02208H
$unwind$?stbi__shiftsigned@@YAHIHH@Z DD 011101H
	DD	04211H
$unwind$?stbi__bmp_parse_header@@YAPEAXPEAUstbi__context@@PEAUstbi__bmp_data@@@Z DD 010e01H
	DD	0c20eH
$unwind$?stbi__tga_get_comp@@YAHHHPEAH@Z DD 011101H
	DD	02211H
$unwind$?stbi__tga_read_rgb16@@YAXPEAUstbi__context@@PEAE@Z DD 010e01H
	DD	0820eH
$unwind$?stbi__psd_decode_rle@@YAHPEAUstbi__context@@PEAEH@Z DD 011301H
	DD	06213H
$unwind$?stbi__pic_is4@@YAHPEAUstbi__context@@PEBD@Z DD 010e01H
	DD	0620eH
$unwind$?stbi__pic_test_core@@YAHPEAUstbi__context@@@Z DD 010901H
	DD	06209H
$unwind$?stbi__readval@@YAPEAEPEAUstbi__context@@HPEAE@Z DD 011201H
	DD	06212H
$unwind$?stbi__copyval@@YAXHPEAEPEBE@Z DD 011201H
	DD	02212H
$unwind$?stbi__pic_load_core@@YAPEAEPEAUstbi__context@@HHPEAHPEAE@Z DD 022c19H
	DD	01b011aH
	DD	imagerel __GSHandlerCheck
	DD	0c8H
$unwind$?stbi__gif_test_raw@@YAHPEAUstbi__context@@@Z DD 010901H
	DD	06209H
$unwind$?stbi__gif_parse_colortable@@YAXPEAUstbi__context@@QEAY03EHH@Z DD 011801H
	DD	06218H
$unwind$?stbi__gif_header@@YAHPEAUstbi__context@@PEAUstbi__gif@@PEAHH@Z DD 011801H
	DD	06218H
$unwind$?stbi__gif_info_raw@@YAHPEAUstbi__context@@PEAH11@Z DD 011801H
	DD	06218H
$unwind$?stbi__out_gif_code@@YAXPEAUstbi__gif@@G@Z DD 010e01H
	DD	0820eH
$unwind$?stbi__process_gif_raster@@YAPEAEPEAUstbi__context@@PEAUstbi__gif@@@Z DD 021101H
	DD	0110111H
$unwind$?stbi__gif_load_next@@YAPEAEPEAUstbi__context@@PEAUstbi__gif@@PEAHHPEAE@Z DD 021b01H
	DD	011011bH
$unwind$?stbi__load_gif_main_outofmem@@YAPEAXPEAUstbi__gif@@PEAEPEAPEAH@Z DD 011301H
	DD	06213H
$unwind$?stbi__hdr_test_core@@YAHPEAUstbi__context@@PEBD@Z DD 010e01H
	DD	0620eH
$unwind$?stbi__hdr_gettoken@@YAPEADPEAUstbi__context@@PEAD@Z DD 010e01H
	DD	0620eH
$unwind$?stbi__hdr_convert@@YAXPEAMPEAEH@Z DD 011301H
	DD	06213H
$unwind$?stbi__pnm_isspace@@YAHD@Z DD 010801H
	DD	02208H
$unwind$?stbi__pnm_skip_whitespace@@YAXPEAUstbi__context@@PEAD@Z DD 010e01H
	DD	0420eH
$unwind$?stbi__pnm_isdigit@@YAHD@Z DD 010801H
	DD	02208H
$unwind$?stbi__pnm_getinteger@@YAHPEAUstbi__context@@PEAD@Z DD 010e01H
	DD	0620eH
$unwind$?stbi__info_main@@YAHPEAUstbi__context@@PEAH11@Z DD 011801H
	DD	04218H
$unwind$?stbi__is_16_main@@YAHPEAUstbi__context@@@Z DD 010901H
	DD	04209H
$unwind$?read_file@@YAXPEADPEAPEAEPEA_K@Z DD 011301H
	DD	08213H
$unwind$?parse_int@@YAHPEAPEAE@Z DD 010901H
	DD	06209H
$unwind$?parse_double@@YANPEAPEAE@Z DD 010901H
	DD	06209H
$unwind$?parse_v2@@YAXPEAMPEAPEAE@Z DD 010e01H
	DD	0420eH
$unwind$?parse_v3@@YAXPEAMPEAPEAE@Z DD 010e01H
	DD	0420eH
$unwind$?parse_indices@@YA?ATvert_idx_t@@PEAPEAE@Z DD 031f19H
	DD	0700c8210H
	DD	0600bH
	DD	imagerel __GSHandlerCheck
	DD	030H
$unwind$?parse_name@@YAIPEAPEAEPEAPEAD@Z DD 010e01H
	DD	0820eH
$unwind$?parse_obj@@YAXPEAUobj_info_t@@PEAEPEAPEAD@Z DD 042a19H
	DD	01f0118H
	DD	060107011H
	DD	imagerel __GSHandlerCheck
	DD	0e0H
$unwind$?init_obj_material@@YAXPEAUobj_mat_t@@@Z DD 010901H
	DD	04209H
$unwind$?parse_mtl@@YAXPEAUobj_info_t@@PEAE@Z DD 010e01H
	DD	0a20eH
$unwind$?load_obj@@YA?AUobj_info_t@@PEAD@Z DD 042519H
	DD	0350113H
	DD	0600b700cH
	DD	imagerel __GSHandlerCheck
	DD	0190H
$unwind$?free_obj@@YAXPEAUobj_info_t@@@Z DD 010901H
	DD	0a209H
$unwind$?load_shader_source@@YAPEADPEBD@Z DD 042019H
	DD	02d010eH
	DD	060067007H
	DD	imagerel __GSHandlerCheck
	DD	0150H
$unwind$?compile_shader@@YAIPEADI@Z DD 022219H
	DD	0490110H
	DD	imagerel __GSHandlerCheck
	DD	0230H
$unwind$?compile_shader_from_file@@YAIPEBDI@Z DD 010d01H
	DD	0620dH
$unwind$?create_program@@YAIPEAII@Z DD 022219H
	DD	0490110H
	DD	imagerel __GSHandlerCheck
	DD	0230H
$unwind$?add_shader@@YAIPEAUgl_renderer@@IZZ DD 011701H
	DD	0c217H
$unwind$?set_uniform_int@@YAXIPEBDH@Z DD 011201H
	DD	06212H
$unwind$?set_uniform_float@@YAXIPEBDM@Z DD 011301H
	DD	06213H
$unwind$?set_uniform_vec3@@YAXIPEBDTHMM_Vec3@@@Z DD 011201H
	DD	06212H
$unwind$?set_uniform_mat4@@YAXIPEBDTHMM_Mat4@@@Z DD 011201H
	DD	06212H
$unwind$?create_texture_from_bitmap@@YAIPEAUasset_manager_t@@PEAEHHH@Z DD 011801H
	DD	0e218H
$unwind$?init_asset_manager@@YAXPEAUasset_manager_t@@@Z DD 010901H
	DD	08209H
$unwind$?hash_vert_idx@@YA_KPEAH@Z DD 010901H
	DD	08209H
$unwind$?kh_init_vertex_map_t@@YAPEAUkh_vertex_map_t_s@@XZ DD 010401H
	DD	04204H
$unwind$?kh_destroy_vertex_map_t@@YAXPEAUkh_vertex_map_t_s@@@Z DD 010901H
	DD	04209H
$unwind$?kh_get_vertex_map_t@@YAIPEBUkh_vertex_map_t_s@@Tvert_idx_t@@@Z DD 010e01H
	DD	0a20eH
$unwind$?kh_resize_vertex_map_t@@YAHPEAUkh_vertex_map_t_s@@I@Z DD 042419H
	DD	0170112H
	DD	0600a700bH
	DD	imagerel __GSHandlerCheck
	DD	0a0H
$unwind$?kh_put_vertex_map_t@@YAIPEAUkh_vertex_map_t_s@@Tvert_idx_t@@PEAH@Z DD 041801H
	DD	0130118H
	DD	060107011H
$unwind$?kh_del_vertex_map_t@@YAXPEAUkh_vertex_map_t_s@@I@Z DD 010d01H
	DD	0220dH
$unwind$?create_model@@YAXPEAUmesh_t@@PEAUobj_info_t@@IUcolor_t@@@Z DD 042f19H
	DD	02f011dH
	DD	060157016H
	DD	imagerel __GSHandlerCheck
	DD	0168H
$unwind$?create_texture@@YAIPEAUasset_manager_t@@PEAD@Z DD 010e01H
	DD	0a20eH
$unwind$?create_materials@@YAXPEAUasset_manager_t@@PEAUmaterial_t@@PEAUobj_info_t@@@Z DD 042a19H
	DD	0430118H
	DD	060107011H
	DD	imagerel __GSHandlerCheck
	DD	0200H
$unwind$?add_model@@YAXPEAUasset_manager_t@@PEADPEAUmodel_info_t@@Ucolor_t@@@Z DD 041d01H
	DD	023011dH
	DD	060157016H
$unwind$?init_gl_renderer@@YAXPEAUgl_renderer@@PEAUcamera_t@@@Z DD 010e01H
	DD	0420eH
$unwind$?update_camera@@YAXPEAUcamera_t@@@Z DD 042019H
	DD	03f010eH
	DD	060067007H
	DD	imagerel __GSHandlerCheck
	DD	01e0H
$unwind$?init_camera@@YAXPEAUcamera_t@@THMM_Vec3@@MMMMMM@Z DD 032b19H
	DD	07018e21cH
	DD	06017H
	DD	imagerel __GSHandlerCheck
	DD	060H
$unwind$?init_light@@YAXPEAUlight_t@@THMM_Vec3@@MMM@Z DD 021801H
	DD	060177018H
$unwind$?add_light@@YAXPEAUgl_renderer@@THMM_Vec3@@MMM@Z DD 031c01H
	DD	07018a21cH
	DD	06017H
$unwind$?init_framebuffer@@YAXPEAUgl_renderer@@PEBD1@Z DD 022819H
	DD	01d0116H
	DD	imagerel __GSHandlerCheck
	DD	0d0H
$unwind$?update_transform@@YAXPEAUgl_renderer@@PEATHMM_Mat4@@THMM_Vec3@@22@Z DD 042f19H
	DD	0125011dH
	DD	060157016H
	DD	imagerel __GSHandlerCheck
	DD	0910H
$unwind$?add_entity@@YAIPEAUgl_renderer@@PEAUmodel_info_t@@THMM_Vec3@@22@Z DD 041d01H
	DD	011011dH
	DD	060157016H
$unwind$?push_mesh@@YAXPEAUgl_renderer@@PEAUasset_manager_t@@PEAUmodel_info_t@@Ucolor_t@@@Z DD 041d01H
	DD	017011dH
	DD	060157016H
$unwind$?adjust_bezier_c1@@YAXPEATHMM_Vec3@@I@Z DD 042419H
	DD	01d0112H
	DD	0600a700bH
	DD	imagerel __GSHandlerCheck
	DD	0d0H
$unwind$?adjust_bezier_g1@@YAXPEATHMM_Vec3@@I@Z DD 042419H
	DD	0390112H
	DD	0600a700bH
	DD	imagerel __GSHandlerCheck
	DD	01b0H
$unwind$?render_mesh@@YAXPEAUgl_renderer@@Umodel_info_t@@@Z DD 031f19H
	DD	0700ca210H
	DD	0600bH
	DD	imagerel __GSHandlerCheck
	DD	040H
$unwind$?bind_material@@YAXPEAUasset_manager_t@@PEAUmaterial_t@@II@Z DD 041d01H
	DD	011011dH
	DD	060157016H
$unwind$?bind_lights@@YAXPEAUlight_t@@II@Z DD 032319H
	DD	07010e214H
	DD	0600fH
	DD	imagerel __GSHandlerCheck
	DD	060H
$unwind$?render@@YAXPEAUgl_renderer@@PEAUasset_manager_t@@I@Z DD 042a19H
	DD	010d0118H
	DD	060107011H
	DD	imagerel __GSHandlerCheck
	DD	0850H
$unwind$?framebuffer_size_callback@@YAXPEAUGLFWwindow@@HH@Z DD 011201H
	DD	04212H
$unwind$?draw_vec3_widget@@YAXPEBDPEATHMM_Vec3@@@Z DD 010e01H
	DD	0c20eH
$unwind$?process_input@@YAXPEAUGLFWwindow@@PEAUgl_renderer@@I@Z DD 011301H
	DD	08213H
$unwind$main DD	042219H
	DD	08270110H
	DD	060027003H
	DD	imagerel __GSHandlerCheck_EH4
	DD	imagerel $cppxdata$main
	DD	04122H
$cppxdata$main DB 028H
	DD	imagerel $stateUnwindMap$main
	DD	imagerel $ip2state$main
$stateUnwindMap$main DB 02H
	DB	0eH
	DD	imagerel main$dtor$0
$ip2state$main DB 06H
	DB	00H
	DB	00H
	DB	0a5H, 'e'
	DB	02H
	DB	01dH, 09H
	DB	00H
$unwind$main$dtor$0 DD 020601H
	DD	050023206H
xdata	ENDS
;	COMDAT xdata
xdata	SEGMENT
$unwind$ldexpf DD 010e01H
	DD	0420eH
xdata	ENDS
;	COMDAT xdata
xdata	SEGMENT
$unwind$??0ImGuiIO@@QEAA@AEBU0@@Z DD 031001H
	DD	0700c4210H
	DD	0600bH
xdata	ENDS
;	COMDAT xdata
xdata	SEGMENT
$unwind$??1ImGuiIO@@QEAA@XZ DD 010901H
	DD	04209H
xdata	ENDS
;	COMDAT xdata
xdata	SEGMENT
$unwind$?reserve@?$ImVector@G@@QEAAXH@Z DD 010d01H
	DD	0620dH
xdata	ENDS
;	COMDAT xdata
xdata	SEGMENT
$unwind$?resize@?$ImVector@G@@QEAAXH@Z DD 010d01H
	DD	0420dH
xdata	ENDS
;	COMDAT xdata
xdata	SEGMENT
$unwind$?_grow_capacity@?$ImVector@G@@QEBAHH@Z DD 010d01H
	DD	0220dH
xdata	ENDS
;	COMDAT xdata
xdata	SEGMENT
$unwind$?clear@?$ImVector@G@@QEAAXXZ DD 010901H
	DD	04209H
xdata	ENDS
;	COMDAT xdata
xdata	SEGMENT
$ip2state$??1?$ImVector@G@@QEAA@XZ DB 02H
	DB	00H
	DB	00H
xdata	ENDS
;	COMDAT xdata
xdata	SEGMENT
$cppxdata$??1?$ImVector@G@@QEAA@XZ DB 060H
	DD	imagerel $ip2state$??1?$ImVector@G@@QEAA@XZ
xdata	ENDS
;	COMDAT xdata
xdata	SEGMENT
$unwind$??1?$ImVector@G@@QEAA@XZ DD 010919H
	DD	04209H
	DD	imagerel __CxxFrameHandler4
	DD	imagerel $cppxdata$??1?$ImVector@G@@QEAA@XZ
xdata	ENDS
;	COMDAT xdata
xdata	SEGMENT
$unwind$??4?$ImVector@G@@QEAAAEAU0@AEBU0@@Z DD 010e01H
	DD	0420eH
xdata	ENDS
;	COMDAT xdata
xdata	SEGMENT
$unwind$??0?$ImVector@G@@QEAA@AEBU0@@Z DD 010e01H
	DD	0420eH
xdata	ENDS
;	COMDAT xdata
xdata	SEGMENT
$unwind$?strrchr@@YAPEADQEADH@Z DD 010d01H
	DD	0420dH
xdata	ENDS
; Function compile flags: /Odtp
; File W:\OpenGL_Viewer\src\main.cpp
_TEXT	SEGMENT
i$1 = 64
is_selected$2 = 68
is_selected$3 = 69
tv880 = 70
tv893 = 71
i$4 = 72
model_combo_idx$ = 76
p$ = 80
i$5 = 88
n$6 = 92
n$7 = 96
i$8 = 100
i$9 = 104
i$10 = 108
$T11 = 112
$T12 = 116
$T13 = 120
$T14 = 124
shader_combo_idx$ = 128
temp$15 = 132
c_selected$ = 136
frame_count$ = 140
$T16 = 144
window$ = 152
entity$17 = 160
prev_p_id$18 = 168
io$ = 176
shader$ = 184
tv732 = 188
tv804 = 192
a_selected$ = 196
tv936 = 200
p_count$19 = 204
tv1026 = 208
size$20 = 216
z_prime_id$ = 224
window_flags$21 = 228
dock_space_id$22 = 232
tv575 = 236
light_count$23 = 240
t$ = 244
debug$ = 248
debug_t$ = 252
c_count$24 = 256
h$25 = 260
w$26 = 264
tv1084 = 268
no_shade_id$ = 272
tv1092 = 276
tv1096 = 280
tv1100 = 284
tv1104 = 288
gouraud_id$ = 292
phong_id$ = 296
tv1088 = 300
flat_id$ = 304
z_id$ = 308
viewport$27 = 312
rp$28 = 320
delta$29 = 328
current_time$30 = 336
last_time$ = 344
tv623 = 352
tv630 = 360
tv637 = 368
tv642 = 376
np$31 = 384
transform$32 = 392
backup$33 = 400
fps$34 = 408
assets$ = 416
$T35 = 440
$T36 = 456
$T37 = 472
$T38 = 488
$T39 = 504
a_type$ = 520
$T40 = 536
$T41 = 560
$T42 = 576
$T43 = 592
$T44 = 608
$T45 = 624
$T46 = 640
$T47 = 656
$T48 = 672
$T49 = 688
$T50 = 704
$T51 = 712
$T52 = 720
$T53 = 728
$T54 = 736
$T55 = 744
$T56 = 752
$T57 = 760
$T58 = 768
$T59 = 784
$T60 = 800
$T61 = 808
$T62 = 824
$T63 = 840
$T64 = 856
$T65 = 872
$T66 = 888
$T67 = 904
$T68 = 920
$T69 = 936
$T70 = 952
$T71 = 968
$T72 = 984
gl$ = 1008
prev_p$73 = 1296
tempf$74 = 1312
$T75 = 1328
$T76 = 1344
$T77 = 1360
$T78 = 1376
$T79 = 1392
$T80 = 1408
$T81 = 1424
$T82 = 1440
$T83 = 1456
$T84 = 1472
camera$ = 1488
io$85 = 1648
colors$ = 16272
combo_models$ = 16288
c_type$ = 16320
paths$ = 16344
color$ = 16384
shader_combo_items$ = 16448
models$ = 16544
buffer$86 = 16608
buffer$87 = 16640
__$ArrayPad$ = 16672
main	PROC

; 128  : int main() {

$LN85:
  00000	40 56		 push	 rsi
  00002	57		 push	 rdi
  00003	b8 38 41 00 00	 mov	 eax, 16696		; 00004138H
  00008	e8 00 00 00 00	 call	 __chkstk
  0000d	48 2b e0	 sub	 rsp, rax
  00010	48 8b 05 00 00
	00 00		 mov	 rax, QWORD PTR __security_cookie
  00017	48 33 c4	 xor	 rax, rsp
  0001a	48 89 84 24 20
	41 00 00	 mov	 QWORD PTR __$ArrayPad$[rsp], rax

; 129  :     glfwInit();

  00022	e8 00 00 00 00	 call	 glfwInit

; 130  :     glfwWindowHint(GLFW_CONTEXT_VERSION_MAJOR, 3);

  00027	ba 03 00 00 00	 mov	 edx, 3
  0002c	b9 02 20 02 00	 mov	 ecx, 139266		; 00022002H
  00031	e8 00 00 00 00	 call	 glfwWindowHint

; 131  :     glfwWindowHint(GLFW_CONTEXT_VERSION_MINOR, 3);

  00036	ba 03 00 00 00	 mov	 edx, 3
  0003b	b9 03 20 02 00	 mov	 ecx, 139267		; 00022003H
  00040	e8 00 00 00 00	 call	 glfwWindowHint

; 132  :     glfwWindowHint(GLFW_OPENGL_PROFILE, GLFW_OPENGL_CORE_PROFILE);

  00045	ba 01 20 03 00	 mov	 edx, 204801		; 00032001H
  0004a	b9 08 20 02 00	 mov	 ecx, 139272		; 00022008H
  0004f	e8 00 00 00 00	 call	 glfwWindowHint

; 133  :     
; 134  :     GLFWwindow *window = glfwCreateWindow(SRC_WIDTH, SRC_HEIGHT, 

  00054	48 c7 44 24 20
	00 00 00 00	 mov	 QWORD PTR [rsp+32], 0
  0005d	45 33 c9	 xor	 r9d, r9d
  00060	4c 8d 05 00 00
	00 00		 lea	 r8, OFFSET FLAT:$SG84821
  00067	ba 58 02 00 00	 mov	 edx, 600		; 00000258H
  0006c	b9 20 03 00 00	 mov	 ecx, 800		; 00000320H
  00071	e8 00 00 00 00	 call	 glfwCreateWindow
  00076	48 89 84 24 98
	00 00 00	 mov	 QWORD PTR window$[rsp], rax

; 135  :                                           "Model Transforms",
; 136  :                                           NULL, NULL);
; 137  :     if (window == NULL) {

  0007e	48 83 bc 24 98
	00 00 00 00	 cmp	 QWORD PTR window$[rsp], 0
  00087	75 0f		 jne	 SHORT $LN31@main

; 138  :         glfwTerminate();

  00089	e8 00 00 00 00	 call	 glfwTerminate

; 139  :         return -1;

  0008e	b8 ff ff ff ff	 mov	 eax, -1
  00093	e9 30 1b 00 00	 jmp	 $LN82@main
$LN31@main:

; 140  :     }
; 141  :     
; 142  :     glfwMakeContextCurrent(window);

  00098	48 8b 8c 24 98
	00 00 00	 mov	 rcx, QWORD PTR window$[rsp]
  000a0	e8 00 00 00 00	 call	 glfwMakeContextCurrent

; 143  :     glfwSetFramebufferSizeCallback(window, framebuffer_size_callback);

  000a5	48 8d 15 00 00
	00 00		 lea	 rdx, OFFSET FLAT:?framebuffer_size_callback@@YAXPEAUGLFWwindow@@HH@Z ; framebuffer_size_callback
  000ac	48 8b 8c 24 98
	00 00 00	 mov	 rcx, QWORD PTR window$[rsp]
  000b4	e8 00 00 00 00	 call	 glfwSetFramebufferSizeCallback

; 144  :     
; 145  :     glewInit();

  000b9	ff 15 00 00 00
	00		 call	 QWORD PTR __imp_glewInit

; 146  :     
; 147  :     IMGUI_CHECKVERSION();

  000bf	48 c7 44 24 30
	02 00 00 00	 mov	 QWORD PTR [rsp+48], 2
  000c8	48 c7 44 24 28
	14 00 00 00	 mov	 QWORD PTR [rsp+40], 20
  000d1	48 c7 44 24 20
	10 00 00 00	 mov	 QWORD PTR [rsp+32], 16
  000da	41 b9 08 00 00
	00		 mov	 r9d, 8
  000e0	41 b8 6c 04 00
	00		 mov	 r8d, 1132		; 0000046cH
  000e6	ba 18 39 00 00	 mov	 edx, 14616		; 00003918H
  000eb	48 8d 0d 00 00
	00 00		 lea	 rcx, OFFSET FLAT:$SG84823
  000f2	e8 00 00 00 00	 call	 ?DebugCheckVersionAndDataLayout@ImGui@@YA_NPEBD_K11111@Z ; ImGui::DebugCheckVersionAndDataLayout

; 148  :     ImGui::CreateContext();

  000f7	33 c9		 xor	 ecx, ecx
  000f9	e8 00 00 00 00	 call	 ?CreateContext@ImGui@@YAPEAUImGuiContext@@PEAUImFontAtlas@@@Z ; ImGui::CreateContext

; 149  :     ImGuiIO& io = ImGui::GetIO(); (void)io;

  000fe	e8 00 00 00 00	 call	 ?GetIO@ImGui@@YAAEAUImGuiIO@@XZ ; ImGui::GetIO
  00103	48 89 84 24 b0
	00 00 00	 mov	 QWORD PTR io$[rsp], rax

; 150  :     io.ConfigFlags |= ImGuiConfigFlags_NavEnableKeyboard;

  0010b	48 8b 84 24 b0
	00 00 00	 mov	 rax, QWORD PTR io$[rsp]
  00113	8b 00		 mov	 eax, DWORD PTR [rax]
  00115	83 c8 01	 or	 eax, 1
  00118	48 8b 8c 24 b0
	00 00 00	 mov	 rcx, QWORD PTR io$[rsp]
  00120	89 01		 mov	 DWORD PTR [rcx], eax

; 151  :     io.ConfigFlags |= ImGuiConfigFlags_DockingEnable; 

  00122	48 8b 84 24 b0
	00 00 00	 mov	 rax, QWORD PTR io$[rsp]
  0012a	8b 00		 mov	 eax, DWORD PTR [rax]
  0012c	83 c8 40	 or	 eax, 64			; 00000040H
  0012f	48 8b 8c 24 b0
	00 00 00	 mov	 rcx, QWORD PTR io$[rsp]
  00137	89 01		 mov	 DWORD PTR [rcx], eax

; 152  :     io.ConfigFlags |= ImGuiConfigFlags_ViewportsEnable; 

  00139	48 8b 84 24 b0
	00 00 00	 mov	 rax, QWORD PTR io$[rsp]
  00141	8b 00		 mov	 eax, DWORD PTR [rax]
  00143	0f ba e8 0a	 bts	 eax, 10
  00147	48 8b 8c 24 b0
	00 00 00	 mov	 rcx, QWORD PTR io$[rsp]
  0014f	89 01		 mov	 DWORD PTR [rcx], eax

; 153  :     
; 154  :     ImGui::StyleColorsDark();

  00151	33 c9		 xor	 ecx, ecx
  00153	e8 00 00 00 00	 call	 ?StyleColorsDark@ImGui@@YAXPEAUImGuiStyle@@@Z ; ImGui::StyleColorsDark

; 155  :     
; 156  :     ImGui_ImplGlfw_InitForOpenGL(window, true);

  00158	b2 01		 mov	 dl, 1
  0015a	48 8b 8c 24 98
	00 00 00	 mov	 rcx, QWORD PTR window$[rsp]
  00162	e8 00 00 00 00	 call	 ?ImGui_ImplGlfw_InitForOpenGL@@YA_NPEAUGLFWwindow@@_N@Z ; ImGui_ImplGlfw_InitForOpenGL

; 157  :     ImGui_ImplOpenGL3_Init("#version 330");

  00167	48 8d 0d 00 00
	00 00		 lea	 rcx, OFFSET FLAT:$SG84824
  0016e	e8 00 00 00 00	 call	 ?ImGui_ImplOpenGL3_Init@@YA_NPEBD@Z ; ImGui_ImplOpenGL3_Init

; 158  :     
; 159  :     
; 160  :     camera_t camera = {0};

  00173	0f 57 c0	 xorps	 xmm0, xmm0
  00176	f3 0f 11 84 24
	d0 05 00 00	 movss	 DWORD PTR camera$[rsp], xmm0
  0017f	48 8d 84 24 d4
	05 00 00	 lea	 rax, QWORD PTR camera$[rsp+4]
  00187	48 8b f8	 mov	 rdi, rax
  0018a	33 c0		 xor	 eax, eax
  0018c	b9 9c 00 00 00	 mov	 ecx, 156		; 0000009cH
  00191	f3 aa		 rep stosb

; 161  :     init_camera(&camera, HMM_V3(0.0f, 0.0f, 10.0f), 1.0f, 1.0f,

  00193	f3 0f 10 1d 00
	00 00 00	 movss	 xmm3, DWORD PTR __real@41200000
  0019b	0f 57 d2	 xorps	 xmm2, xmm2
  0019e	0f 57 c9	 xorps	 xmm1, xmm1
  001a1	48 8d 8c 24 a8
	03 00 00	 lea	 rcx, QWORD PTR $T69[rsp]
  001a9	e8 00 00 00 00	 call	 HMM_V3
  001ae	48 8d 8c 24 30
	05 00 00	 lea	 rcx, QWORD PTR $T75[rsp]
  001b6	48 8b f9	 mov	 rdi, rcx
  001b9	48 8b f0	 mov	 rsi, rax
  001bc	b9 0c 00 00 00	 mov	 ecx, 12
  001c1	f3 a4		 rep movsb
  001c3	48 8d 84 24 90
	02 00 00	 lea	 rax, QWORD PTR $T47[rsp]
  001cb	48 8d 8c 24 30
	05 00 00	 lea	 rcx, QWORD PTR $T75[rsp]
  001d3	48 8b f8	 mov	 rdi, rax
  001d6	48 8b f1	 mov	 rsi, rcx
  001d9	b9 0c 00 00 00	 mov	 ecx, 12
  001de	f3 a4		 rep movsb
  001e0	f3 0f 10 05 00
	00 00 00	 movss	 xmm0, DWORD PTR __real@42480000
  001e8	f3 0f 11 44 24
	38		 movss	 DWORD PTR [rsp+56], xmm0
  001ee	f3 0f 10 05 00
	00 00 00	 movss	 xmm0, DWORD PTR __real@3dcccccd
  001f6	f3 0f 11 44 24
	30		 movss	 DWORD PTR [rsp+48], xmm0
  001fc	f3 0f 10 05 00
	00 00 00	 movss	 xmm0, DWORD PTR __real@42340000
  00204	f3 0f 11 44 24
	28		 movss	 DWORD PTR [rsp+40], xmm0
  0020a	f3 0f 10 05 00
	00 00 00	 movss	 xmm0, DWORD PTR __real@3faaaaab
  00212	f3 0f 11 44 24
	20		 movss	 DWORD PTR [rsp+32], xmm0
  00218	f3 0f 10 1d 00
	00 00 00	 movss	 xmm3, DWORD PTR __real@3f800000
  00220	f3 0f 10 15 00
	00 00 00	 movss	 xmm2, DWORD PTR __real@3f800000
  00228	48 8d 94 24 90
	02 00 00	 lea	 rdx, QWORD PTR $T47[rsp]
  00230	48 8d 8c 24 d0
	05 00 00	 lea	 rcx, QWORD PTR camera$[rsp]
  00238	e8 00 00 00 00	 call	 ?init_camera@@YAXPEAUcamera_t@@THMM_Vec3@@MMMMMM@Z ; init_camera

; 162  :                 (f32)SRC_WIDTH/SRC_HEIGHT);
; 163  :     
; 164  :     gl_renderer gl = {0};

  0023d	48 8d 84 24 f0
	03 00 00	 lea	 rax, QWORD PTR gl$[rsp]
  00245	48 8b f8	 mov	 rdi, rax
  00248	33 c0		 xor	 eax, eax
  0024a	b9 18 01 00 00	 mov	 ecx, 280		; 00000118H
  0024f	f3 aa		 rep stosb

; 165  :     init_gl_renderer(&gl, &camera);

  00251	48 8d 94 24 d0
	05 00 00	 lea	 rdx, QWORD PTR camera$[rsp]
  00259	48 8d 8c 24 f0
	03 00 00	 lea	 rcx, QWORD PTR gl$[rsp]
  00261	e8 00 00 00 00	 call	 ?init_gl_renderer@@YAXPEAUgl_renderer@@PEAUcamera_t@@@Z ; init_gl_renderer

; 166  :     init_framebuffer(&gl, "framebuffer_vert.glsl", "framebuffer_frag.glsl");

  00266	4c 8d 05 00 00
	00 00		 lea	 r8, OFFSET FLAT:$SG84825
  0026d	48 8d 15 00 00
	00 00		 lea	 rdx, OFFSET FLAT:$SG84826
  00274	48 8d 8c 24 f0
	03 00 00	 lea	 rcx, QWORD PTR gl$[rsp]
  0027c	e8 00 00 00 00	 call	 ?init_framebuffer@@YAXPEAUgl_renderer@@PEBD1@Z ; init_framebuffer

; 167  :     
; 168  :     add_light(&gl, HMM_V3(5.0f, 2.0f, 3.0f));

  00281	f3 0f 10 1d 00
	00 00 00	 movss	 xmm3, DWORD PTR __real@40400000
  00289	f3 0f 10 15 00
	00 00 00	 movss	 xmm2, DWORD PTR __real@40000000
  00291	f3 0f 10 0d 00
	00 00 00	 movss	 xmm1, DWORD PTR __real@40a00000
  00299	48 8d 8c 24 b8
	03 00 00	 lea	 rcx, QWORD PTR $T70[rsp]
  002a1	e8 00 00 00 00	 call	 HMM_V3
  002a6	48 8d 8c 24 40
	05 00 00	 lea	 rcx, QWORD PTR $T76[rsp]
  002ae	48 8b f9	 mov	 rdi, rcx
  002b1	48 8b f0	 mov	 rsi, rax
  002b4	b9 0c 00 00 00	 mov	 ecx, 12
  002b9	f3 a4		 rep movsb
  002bb	48 8d 84 24 a0
	02 00 00	 lea	 rax, QWORD PTR $T48[rsp]
  002c3	48 8d 8c 24 40
	05 00 00	 lea	 rcx, QWORD PTR $T76[rsp]
  002cb	48 8b f8	 mov	 rdi, rax
  002ce	48 8b f1	 mov	 rsi, rcx
  002d1	b9 0c 00 00 00	 mov	 ecx, 12
  002d6	f3 a4		 rep movsb
  002d8	f3 0f 10 05 00
	00 00 00	 movss	 xmm0, DWORD PTR __real@3d03126f
  002e0	f3 0f 11 44 24
	20		 movss	 DWORD PTR [rsp+32], xmm0
  002e6	f3 0f 10 1d 00
	00 00 00	 movss	 xmm3, DWORD PTR __real@3db851ec
  002ee	f3 0f 10 15 00
	00 00 00	 movss	 xmm2, DWORD PTR __real@3f800000
  002f6	48 8d 94 24 a0
	02 00 00	 lea	 rdx, QWORD PTR $T48[rsp]
  002fe	48 8d 8c 24 f0
	03 00 00	 lea	 rcx, QWORD PTR gl$[rsp]
  00306	e8 00 00 00 00	 call	 ?add_light@@YAXPEAUgl_renderer@@THMM_Vec3@@MMM@Z ; add_light

; 169  :     
; 170  :     asset_manager_t assets = {0};

  0030b	48 8d 84 24 a0
	01 00 00	 lea	 rax, QWORD PTR assets$[rsp]
  00313	48 8b f8	 mov	 rdi, rax
  00316	33 c0		 xor	 eax, eax
  00318	b9 18 00 00 00	 mov	 ecx, 24
  0031d	f3 aa		 rep stosb

; 171  :     init_asset_manager(&assets);

  0031f	48 8d 8c 24 a0
	01 00 00	 lea	 rcx, QWORD PTR assets$[rsp]
  00327	e8 00 00 00 00	 call	 ?init_asset_manager@@YAXPEAUasset_manager_t@@@Z ; init_asset_manager

; 172  :     
; 173  :     u32 no_shade_id = add_shader(&gl, 2, "vert.glsl", GL_VERTEX_SHADER,

  0032c	c7 44 24 28 30
	8b 00 00	 mov	 DWORD PTR [rsp+40], 35632 ; 00008b30H
  00334	48 8d 05 00 00
	00 00		 lea	 rax, OFFSET FLAT:$SG84827
  0033b	48 89 44 24 20	 mov	 QWORD PTR [rsp+32], rax
  00340	41 b9 31 8b 00
	00		 mov	 r9d, 35633		; 00008b31H
  00346	4c 8d 05 00 00
	00 00		 lea	 r8, OFFSET FLAT:$SG84828
  0034d	ba 02 00 00 00	 mov	 edx, 2
  00352	48 8d 8c 24 f0
	03 00 00	 lea	 rcx, QWORD PTR gl$[rsp]
  0035a	e8 00 00 00 00	 call	 ?add_shader@@YAIPEAUgl_renderer@@IZZ ; add_shader
  0035f	89 84 24 10 01
	00 00		 mov	 DWORD PTR no_shade_id$[rsp], eax

; 174  :                                  "frag.glsl", GL_FRAGMENT_SHADER);
; 175  :     
; 176  :     u32 flat_id = add_shader(&gl, 3, "flat_vert.glsl", GL_VERTEX_SHADER, "flat_geo.glsl", GL_GEOMETRY_SHADER, "flat_frag.glsl", GL_FRAGMENT_SHADER);

  00366	c7 44 24 38 30
	8b 00 00	 mov	 DWORD PTR [rsp+56], 35632 ; 00008b30H
  0036e	48 8d 05 00 00
	00 00		 lea	 rax, OFFSET FLAT:$SG84829
  00375	48 89 44 24 30	 mov	 QWORD PTR [rsp+48], rax
  0037a	c7 44 24 28 d9
	8d 00 00	 mov	 DWORD PTR [rsp+40], 36313 ; 00008dd9H
  00382	48 8d 05 00 00
	00 00		 lea	 rax, OFFSET FLAT:$SG84830
  00389	48 89 44 24 20	 mov	 QWORD PTR [rsp+32], rax
  0038e	41 b9 31 8b 00
	00		 mov	 r9d, 35633		; 00008b31H
  00394	4c 8d 05 00 00
	00 00		 lea	 r8, OFFSET FLAT:$SG84831
  0039b	ba 03 00 00 00	 mov	 edx, 3
  003a0	48 8d 8c 24 f0
	03 00 00	 lea	 rcx, QWORD PTR gl$[rsp]
  003a8	e8 00 00 00 00	 call	 ?add_shader@@YAIPEAUgl_renderer@@IZZ ; add_shader
  003ad	89 84 24 30 01
	00 00		 mov	 DWORD PTR flat_id$[rsp], eax

; 177  :     
; 178  :     u32 gouraud_id = add_shader(&gl, 2, "gouraud_vert.glsl", GL_VERTEX_SHADER,

  003b4	c7 44 24 28 30
	8b 00 00	 mov	 DWORD PTR [rsp+40], 35632 ; 00008b30H
  003bc	48 8d 05 00 00
	00 00		 lea	 rax, OFFSET FLAT:$SG84832
  003c3	48 89 44 24 20	 mov	 QWORD PTR [rsp+32], rax
  003c8	41 b9 31 8b 00
	00		 mov	 r9d, 35633		; 00008b31H
  003ce	4c 8d 05 00 00
	00 00		 lea	 r8, OFFSET FLAT:$SG84833
  003d5	ba 02 00 00 00	 mov	 edx, 2
  003da	48 8d 8c 24 f0
	03 00 00	 lea	 rcx, QWORD PTR gl$[rsp]
  003e2	e8 00 00 00 00	 call	 ?add_shader@@YAIPEAUgl_renderer@@IZZ ; add_shader
  003e7	89 84 24 24 01
	00 00		 mov	 DWORD PTR gouraud_id$[rsp], eax

; 179  :                                 "gouraud_frag.glsl", GL_FRAGMENT_SHADER);
; 180  :     
; 181  :     u32 phong_id = add_shader(&gl, 2, "phong_vert.glsl", GL_VERTEX_SHADER,

  003ee	c7 44 24 28 30
	8b 00 00	 mov	 DWORD PTR [rsp+40], 35632 ; 00008b30H
  003f6	48 8d 05 00 00
	00 00		 lea	 rax, OFFSET FLAT:$SG84834
  003fd	48 89 44 24 20	 mov	 QWORD PTR [rsp+32], rax
  00402	41 b9 31 8b 00
	00		 mov	 r9d, 35633		; 00008b31H
  00408	4c 8d 05 00 00
	00 00		 lea	 r8, OFFSET FLAT:$SG84835
  0040f	ba 02 00 00 00	 mov	 edx, 2
  00414	48 8d 8c 24 f0
	03 00 00	 lea	 rcx, QWORD PTR gl$[rsp]
  0041c	e8 00 00 00 00	 call	 ?add_shader@@YAIPEAUgl_renderer@@IZZ ; add_shader
  00421	89 84 24 28 01
	00 00		 mov	 DWORD PTR phong_id$[rsp], eax

; 182  :                               "phong_frag.glsl", GL_FRAGMENT_SHADER);
; 183  :     
; 184  :     u32 z_id = add_shader(&gl, 2, "depth_vert.glsl", GL_VERTEX_SHADER,

  00428	c7 44 24 28 30
	8b 00 00	 mov	 DWORD PTR [rsp+40], 35632 ; 00008b30H
  00430	48 8d 05 00 00
	00 00		 lea	 rax, OFFSET FLAT:$SG84836
  00437	48 89 44 24 20	 mov	 QWORD PTR [rsp+32], rax
  0043c	41 b9 31 8b 00
	00		 mov	 r9d, 35633		; 00008b31H
  00442	4c 8d 05 00 00
	00 00		 lea	 r8, OFFSET FLAT:$SG84837
  00449	ba 02 00 00 00	 mov	 edx, 2
  0044e	48 8d 8c 24 f0
	03 00 00	 lea	 rcx, QWORD PTR gl$[rsp]
  00456	e8 00 00 00 00	 call	 ?add_shader@@YAIPEAUgl_renderer@@IZZ ; add_shader
  0045b	89 84 24 34 01
	00 00		 mov	 DWORD PTR z_id$[rsp], eax

; 185  :                           "depth_frag.glsl", GL_FRAGMENT_SHADER);
; 186  :     
; 187  :     u32 z_prime_id = add_shader(&gl, 2, "linear_depth_vert.glsl", GL_VERTEX_SHADER,

  00462	c7 44 24 28 30
	8b 00 00	 mov	 DWORD PTR [rsp+40], 35632 ; 00008b30H
  0046a	48 8d 05 00 00
	00 00		 lea	 rax, OFFSET FLAT:$SG84838
  00471	48 89 44 24 20	 mov	 QWORD PTR [rsp+32], rax
  00476	41 b9 31 8b 00
	00		 mov	 r9d, 35633		; 00008b31H
  0047c	4c 8d 05 00 00
	00 00		 lea	 r8, OFFSET FLAT:$SG84839
  00483	ba 02 00 00 00	 mov	 edx, 2
  00488	48 8d 8c 24 f0
	03 00 00	 lea	 rcx, QWORD PTR gl$[rsp]
  00490	e8 00 00 00 00	 call	 ?add_shader@@YAIPEAUgl_renderer@@IZZ ; add_shader
  00495	89 84 24 e0 00
	00 00		 mov	 DWORD PTR z_prime_id$[rsp], eax

; 188  :                                 "linear_depth_frag.glsl", GL_FRAGMENT_SHADER);
; 189  :     
; 190  :     
; 191  :     u32 shader = get_shader(&gl, gl.fb.id);

  0049c	8b 94 24 e4 04
	00 00		 mov	 edx, DWORD PTR gl$[rsp+244]
  004a3	48 8d 8c 24 f0
	03 00 00	 lea	 rcx, QWORD PTR gl$[rsp]
  004ab	e8 00 00 00 00	 call	 ?get_shader@@YAIPEAUgl_renderer@@I@Z ; get_shader
  004b0	89 84 24 b8 00
	00 00		 mov	 DWORD PTR shader$[rsp], eax

; 192  :     glUseProgram(shader);

  004b7	8b 8c 24 b8 00
	00 00		 mov	 ecx, DWORD PTR shader$[rsp]
  004be	48 8b 05 00 00
	00 00		 mov	 rax, QWORD PTR __imp___glewUseProgram
  004c5	ff 10		 call	 QWORD PTR [rax]

; 193  :     set_uniform_int(shader, "tex", 0);

  004c7	45 33 c0	 xor	 r8d, r8d
  004ca	48 8d 15 00 00
	00 00		 lea	 rdx, OFFSET FLAT:$SG84840
  004d1	8b 8c 24 b8 00
	00 00		 mov	 ecx, DWORD PTR shader$[rsp]
  004d8	e8 00 00 00 00	 call	 ?set_uniform_int@@YAXIPEBDH@Z ; set_uniform_int

; 194  :     
; 195  :     
; 196  :     char *paths[4] = {
; 197  :         "backpack\\backpack.obj",

  004dd	48 8d 05 00 00
	00 00		 lea	 rax, OFFSET FLAT:$SG84841
  004e4	48 89 84 24 d8
	3f 00 00	 mov	 QWORD PTR paths$[rsp], rax

; 198  :         "smooth_monkey\\monkey.obj",

  004ec	48 8d 05 00 00
	00 00		 lea	 rax, OFFSET FLAT:$SG84842
  004f3	48 89 84 24 e0
	3f 00 00	 mov	 QWORD PTR paths$[rsp+8], rax

; 199  :         "dragon\\dragon.obj",

  004fb	48 8d 05 00 00
	00 00		 lea	 rax, OFFSET FLAT:$SG84843
  00502	48 89 84 24 e8
	3f 00 00	 mov	 QWORD PTR paths$[rsp+16], rax

; 200  :         "cow\\cow.obj"

  0050a	48 8d 05 00 00
	00 00		 lea	 rax, OFFSET FLAT:$SG84844
  00511	48 89 84 24 f0
	3f 00 00	 mov	 QWORD PTR paths$[rsp+24], rax

; 201  :     };
; 202  :     
; 203  :     color_t colors[4] {
; 204  :         color_t{255, 255, 255, 255},

  00519	c6 84 24 90 00
	00 00 ff	 mov	 BYTE PTR $T16[rsp], 255	; 000000ffH
  00521	c6 84 24 91 00
	00 00 ff	 mov	 BYTE PTR $T16[rsp+1], 255 ; 000000ffH
  00529	c6 84 24 92 00
	00 00 ff	 mov	 BYTE PTR $T16[rsp+2], 255 ; 000000ffH
  00531	c6 84 24 93 00
	00 00 ff	 mov	 BYTE PTR $T16[rsp+3], 255 ; 000000ffH
  00539	8b 84 24 90 00
	00 00		 mov	 eax, DWORD PTR $T16[rsp]
  00540	89 84 24 90 3f
	00 00		 mov	 DWORD PTR colors$[rsp], eax

; 205  :         color_t{ 135, 0, 0, 255 },

  00547	c6 44 24 70 87	 mov	 BYTE PTR $T11[rsp], 135	; 00000087H
  0054c	c6 44 24 71 00	 mov	 BYTE PTR $T11[rsp+1], 0
  00551	c6 44 24 72 00	 mov	 BYTE PTR $T11[rsp+2], 0
  00556	c6 44 24 73 ff	 mov	 BYTE PTR $T11[rsp+3], 255 ; 000000ffH
  0055b	8b 44 24 70	 mov	 eax, DWORD PTR $T11[rsp]
  0055f	89 84 24 94 3f
	00 00		 mov	 DWORD PTR colors$[rsp+4], eax

; 206  :         color_t{255, 255, 255, 255},

  00566	c6 44 24 74 ff	 mov	 BYTE PTR $T12[rsp], 255	; 000000ffH
  0056b	c6 44 24 75 ff	 mov	 BYTE PTR $T12[rsp+1], 255 ; 000000ffH
  00570	c6 44 24 76 ff	 mov	 BYTE PTR $T12[rsp+2], 255 ; 000000ffH
  00575	c6 44 24 77 ff	 mov	 BYTE PTR $T12[rsp+3], 255 ; 000000ffH
  0057a	8b 44 24 74	 mov	 eax, DWORD PTR $T12[rsp]
  0057e	89 84 24 98 3f
	00 00		 mov	 DWORD PTR colors$[rsp+8], eax

; 207  :         color_t{ 0, 100, 135, 255 },

  00585	c6 44 24 78 00	 mov	 BYTE PTR $T13[rsp], 0
  0058a	c6 44 24 79 64	 mov	 BYTE PTR $T13[rsp+1], 100 ; 00000064H
  0058f	c6 44 24 7a 87	 mov	 BYTE PTR $T13[rsp+2], 135 ; 00000087H
  00594	c6 44 24 7b ff	 mov	 BYTE PTR $T13[rsp+3], 255 ; 000000ffH
  00599	8b 44 24 78	 mov	 eax, DWORD PTR $T13[rsp]
  0059d	89 84 24 9c 3f
	00 00		 mov	 DWORD PTR colors$[rsp+12], eax

; 208  :     };
; 209  :     
; 210  :     char *combo_models[4] = {
; 211  :         "Backpack",

  005a4	48 8d 05 00 00
	00 00		 lea	 rax, OFFSET FLAT:$SG84845
  005ab	48 89 84 24 a0
	3f 00 00	 mov	 QWORD PTR combo_models$[rsp], rax

; 212  :         "Monkey",

  005b3	48 8d 05 00 00
	00 00		 lea	 rax, OFFSET FLAT:$SG84846
  005ba	48 89 84 24 a8
	3f 00 00	 mov	 QWORD PTR combo_models$[rsp+8], rax

; 213  :         "Dragon",

  005c2	48 8d 05 00 00
	00 00		 lea	 rax, OFFSET FLAT:$SG84847
  005c9	48 89 84 24 b0
	3f 00 00	 mov	 QWORD PTR combo_models$[rsp+16], rax

; 214  :         "Cow"

  005d1	48 8d 05 00 00
	00 00		 lea	 rax, OFFSET FLAT:$SG84848
  005d8	48 89 84 24 b8
	3f 00 00	 mov	 QWORD PTR combo_models$[rsp+24], rax

; 215  :     };
; 216  :     
; 217  :     model_info_t models[ARRAY_COUNT(combo_models)];
; 218  :     
; 219  :     for(u32 i = 0; i < ARRAY_COUNT(combo_models); i++) {

  005e0	c7 44 24 58 00
	00 00 00	 mov	 DWORD PTR i$5[rsp], 0
  005e8	eb 0a		 jmp	 SHORT $LN4@main
$LN2@main:
  005ea	8b 44 24 58	 mov	 eax, DWORD PTR i$5[rsp]
  005ee	ff c0		 inc	 eax
  005f0	89 44 24 58	 mov	 DWORD PTR i$5[rsp], eax
$LN4@main:
  005f4	8b 44 24 58	 mov	 eax, DWORD PTR i$5[rsp]
  005f8	48 83 f8 04	 cmp	 rax, 4
  005fc	0f 83 6e 01 00
	00		 jae	 $LN3@main

; 220  :         add_model(&assets, paths[i], models+i);

  00602	c6 44 24 7c 00	 mov	 BYTE PTR $T14[rsp], 0
  00607	c6 44 24 7d 00	 mov	 BYTE PTR $T14[rsp+1], 0
  0060c	c6 44 24 7e 00	 mov	 BYTE PTR $T14[rsp+2], 0
  00611	c6 44 24 7f ff	 mov	 BYTE PTR $T14[rsp+3], 255 ; 000000ffH
  00616	8b 44 24 58	 mov	 eax, DWORD PTR i$5[rsp]
  0061a	48 6b c0 10	 imul	 rax, rax, 16
  0061e	48 8d 84 04 a0
	40 00 00	 lea	 rax, QWORD PTR models$[rsp+rax]
  00626	8b 4c 24 58	 mov	 ecx, DWORD PTR i$5[rsp]
  0062a	44 8b 4c 24 7c	 mov	 r9d, DWORD PTR $T14[rsp]
  0062f	4c 8b c0	 mov	 r8, rax
  00632	48 8b 94 cc d8
	3f 00 00	 mov	 rdx, QWORD PTR paths$[rsp+rcx*8]
  0063a	48 8d 8c 24 a0
	01 00 00	 lea	 rcx, QWORD PTR assets$[rsp]
  00642	e8 00 00 00 00	 call	 ?add_model@@YAXPEAUasset_manager_t@@PEADPEAUmodel_info_t@@Ucolor_t@@@Z ; add_model

; 221  :         add_entity(&gl, models+i, HMM_V3(0.0f, 0.0f, 0.0f),

  00647	f3 0f 10 1d 00
	00 00 00	 movss	 xmm3, DWORD PTR __real@3f800000
  0064f	f3 0f 10 15 00
	00 00 00	 movss	 xmm2, DWORD PTR __real@3f800000
  00657	f3 0f 10 0d 00
	00 00 00	 movss	 xmm1, DWORD PTR __real@3f800000
  0065f	48 8d 8c 24 98
	03 00 00	 lea	 rcx, QWORD PTR $T68[rsp]
  00667	e8 00 00 00 00	 call	 HMM_V3
  0066c	48 8d 8c 24 50
	05 00 00	 lea	 rcx, QWORD PTR $T77[rsp]
  00674	48 8b f9	 mov	 rdi, rcx
  00677	48 8b f0	 mov	 rsi, rax
  0067a	b9 0c 00 00 00	 mov	 ecx, 12
  0067f	f3 a4		 rep movsb
  00681	0f 57 db	 xorps	 xmm3, xmm3
  00684	0f 57 d2	 xorps	 xmm2, xmm2
  00687	0f 57 c9	 xorps	 xmm1, xmm1
  0068a	48 8d 8c 24 28
	03 00 00	 lea	 rcx, QWORD PTR $T61[rsp]
  00692	e8 00 00 00 00	 call	 HMM_V3
  00697	48 8d 8c 24 60
	05 00 00	 lea	 rcx, QWORD PTR $T78[rsp]
  0069f	48 8b f9	 mov	 rdi, rcx
  006a2	48 8b f0	 mov	 rsi, rax
  006a5	b9 0c 00 00 00	 mov	 ecx, 12
  006aa	f3 a4		 rep movsb
  006ac	0f 57 db	 xorps	 xmm3, xmm3
  006af	0f 57 d2	 xorps	 xmm2, xmm2
  006b2	0f 57 c9	 xorps	 xmm1, xmm1
  006b5	48 8d 8c 24 38
	03 00 00	 lea	 rcx, QWORD PTR $T62[rsp]
  006bd	e8 00 00 00 00	 call	 HMM_V3
  006c2	48 8d 8c 24 70
	05 00 00	 lea	 rcx, QWORD PTR $T79[rsp]
  006ca	48 8b f9	 mov	 rdi, rcx
  006cd	48 8b f0	 mov	 rsi, rax
  006d0	b9 0c 00 00 00	 mov	 ecx, 12
  006d5	f3 a4		 rep movsb
  006d7	48 8d 84 24 40
	02 00 00	 lea	 rax, QWORD PTR $T42[rsp]
  006df	48 8d 8c 24 50
	05 00 00	 lea	 rcx, QWORD PTR $T77[rsp]
  006e7	48 8b f8	 mov	 rdi, rax
  006ea	48 8b f1	 mov	 rsi, rcx
  006ed	b9 0c 00 00 00	 mov	 ecx, 12
  006f2	f3 a4		 rep movsb
  006f4	48 8d 84 24 50
	02 00 00	 lea	 rax, QWORD PTR $T43[rsp]
  006fc	48 8d 8c 24 60
	05 00 00	 lea	 rcx, QWORD PTR $T78[rsp]
  00704	48 8b f8	 mov	 rdi, rax
  00707	48 8b f1	 mov	 rsi, rcx
  0070a	b9 0c 00 00 00	 mov	 ecx, 12
  0070f	f3 a4		 rep movsb
  00711	48 8d 84 24 60
	02 00 00	 lea	 rax, QWORD PTR $T44[rsp]
  00719	48 8d 8c 24 70
	05 00 00	 lea	 rcx, QWORD PTR $T79[rsp]
  00721	48 8b f8	 mov	 rdi, rax
  00724	48 8b f1	 mov	 rsi, rcx
  00727	b9 0c 00 00 00	 mov	 ecx, 12
  0072c	f3 a4		 rep movsb
  0072e	8b 44 24 58	 mov	 eax, DWORD PTR i$5[rsp]
  00732	48 6b c0 10	 imul	 rax, rax, 16
  00736	48 8d 84 04 a0
	40 00 00	 lea	 rax, QWORD PTR models$[rsp+rax]
  0073e	48 8d 8c 24 40
	02 00 00	 lea	 rcx, QWORD PTR $T42[rsp]
  00746	48 89 4c 24 20	 mov	 QWORD PTR [rsp+32], rcx
  0074b	4c 8d 8c 24 50
	02 00 00	 lea	 r9, QWORD PTR $T43[rsp]
  00753	4c 8d 84 24 60
	02 00 00	 lea	 r8, QWORD PTR $T44[rsp]
  0075b	48 8b d0	 mov	 rdx, rax
  0075e	48 8d 8c 24 f0
	03 00 00	 lea	 rcx, QWORD PTR gl$[rsp]
  00766	e8 00 00 00 00	 call	 ?add_entity@@YAIPEAUgl_renderer@@PEAUmodel_info_t@@THMM_Vec3@@22@Z ; add_entity

; 222  :                    HMM_V3(0.0f, 0.0f, 0.0f),  HMM_V3(1.0f, 1.0f, 1.0f));
; 223  :     }

  0076b	e9 7a fe ff ff	 jmp	 $LN2@main
$LN3@main:

; 224  :     
; 225  :     shader_combo_item_t shader_combo_items[] = {
; 226  :         SHADER_COMBO("None", no_shade_id),

  00770	48 8d 05 00 00
	00 00		 lea	 rax, OFFSET FLAT:$SG84849
  00777	48 89 84 24 18
	02 00 00	 mov	 QWORD PTR $T40[rsp], rax
  0077f	8b 84 24 10 01
	00 00		 mov	 eax, DWORD PTR no_shade_id$[rsp]
  00786	89 84 24 20 02
	00 00		 mov	 DWORD PTR $T40[rsp+8], eax
  0078d	48 8d 84 24 40
	40 00 00	 lea	 rax, QWORD PTR shader_combo_items$[rsp]
  00795	48 8d 8c 24 18
	02 00 00	 lea	 rcx, QWORD PTR $T40[rsp]
  0079d	48 8b f8	 mov	 rdi, rax
  007a0	48 8b f1	 mov	 rsi, rcx
  007a3	b9 10 00 00 00	 mov	 ecx, 16
  007a8	f3 a4		 rep movsb

; 227  :         SHADER_COMBO("Gouraud", gouraud_id),

  007aa	48 8d 05 00 00
	00 00		 lea	 rax, OFFSET FLAT:$SG84850
  007b1	48 89 84 24 e8
	01 00 00	 mov	 QWORD PTR $T38[rsp], rax
  007b9	8b 84 24 24 01
	00 00		 mov	 eax, DWORD PTR gouraud_id$[rsp]
  007c0	89 84 24 f0 01
	00 00		 mov	 DWORD PTR $T38[rsp+8], eax
  007c7	48 8d 84 24 50
	40 00 00	 lea	 rax, QWORD PTR shader_combo_items$[rsp+16]
  007cf	48 8d 8c 24 e8
	01 00 00	 lea	 rcx, QWORD PTR $T38[rsp]
  007d7	48 8b f8	 mov	 rdi, rax
  007da	48 8b f1	 mov	 rsi, rcx
  007dd	b9 10 00 00 00	 mov	 ecx, 16
  007e2	f3 a4		 rep movsb

; 228  :         SHADER_COMBO("Phong", phong_id),

  007e4	48 8d 05 00 00
	00 00		 lea	 rax, OFFSET FLAT:$SG84851
  007eb	48 89 84 24 d8
	01 00 00	 mov	 QWORD PTR $T37[rsp], rax
  007f3	8b 84 24 28 01
	00 00		 mov	 eax, DWORD PTR phong_id$[rsp]
  007fa	89 84 24 e0 01
	00 00		 mov	 DWORD PTR $T37[rsp+8], eax
  00801	48 8d 84 24 60
	40 00 00	 lea	 rax, QWORD PTR shader_combo_items$[rsp+32]
  00809	48 8d 8c 24 d8
	01 00 00	 lea	 rcx, QWORD PTR $T37[rsp]
  00811	48 8b f8	 mov	 rdi, rax
  00814	48 8b f1	 mov	 rsi, rcx
  00817	b9 10 00 00 00	 mov	 ecx, 16
  0081c	f3 a4		 rep movsb

; 229  :         SHADER_COMBO("Flat", flat_id),

  0081e	48 8d 05 00 00
	00 00		 lea	 rax, OFFSET FLAT:$SG84852
  00825	48 89 84 24 c8
	01 00 00	 mov	 QWORD PTR $T36[rsp], rax
  0082d	8b 84 24 30 01
	00 00		 mov	 eax, DWORD PTR flat_id$[rsp]
  00834	89 84 24 d0 01
	00 00		 mov	 DWORD PTR $T36[rsp+8], eax
  0083b	48 8d 84 24 70
	40 00 00	 lea	 rax, QWORD PTR shader_combo_items$[rsp+48]
  00843	48 8d 8c 24 c8
	01 00 00	 lea	 rcx, QWORD PTR $T36[rsp]
  0084b	48 8b f8	 mov	 rdi, rax
  0084e	48 8b f1	 mov	 rsi, rcx
  00851	b9 10 00 00 00	 mov	 ecx, 16
  00856	f3 a4		 rep movsb

; 230  :         SHADER_COMBO("Z Buffer", z_id),

  00858	48 8d 05 00 00
	00 00		 lea	 rax, OFFSET FLAT:$SG84853
  0085f	48 89 84 24 b8
	01 00 00	 mov	 QWORD PTR $T35[rsp], rax
  00867	8b 84 24 34 01
	00 00		 mov	 eax, DWORD PTR z_id$[rsp]
  0086e	89 84 24 c0 01
	00 00		 mov	 DWORD PTR $T35[rsp+8], eax
  00875	48 8d 84 24 80
	40 00 00	 lea	 rax, QWORD PTR shader_combo_items$[rsp+64]
  0087d	48 8d 8c 24 b8
	01 00 00	 lea	 rcx, QWORD PTR $T35[rsp]
  00885	48 8b f8	 mov	 rdi, rax
  00888	48 8b f1	 mov	 rsi, rcx
  0088b	b9 10 00 00 00	 mov	 ecx, 16
  00890	f3 a4		 rep movsb

; 231  :         SHADER_COMBO("Z' Buffer", z_prime_id),

  00892	48 8d 05 00 00
	00 00		 lea	 rax, OFFSET FLAT:$SG84854
  00899	48 89 84 24 f8
	01 00 00	 mov	 QWORD PTR $T39[rsp], rax
  008a1	8b 84 24 e0 00
	00 00		 mov	 eax, DWORD PTR z_prime_id$[rsp]
  008a8	89 84 24 00 02
	00 00		 mov	 DWORD PTR $T39[rsp+8], eax
  008af	48 8d 84 24 90
	40 00 00	 lea	 rax, QWORD PTR shader_combo_items$[rsp+80]
  008b7	48 8d 8c 24 f8
	01 00 00	 lea	 rcx, QWORD PTR $T39[rsp]
  008bf	48 8b f8	 mov	 rdi, rax
  008c2	48 8b f1	 mov	 rsi, rcx
  008c5	b9 10 00 00 00	 mov	 ecx, 16
  008ca	f3 a4		 rep movsb

; 232  :     };
; 233  :     
; 234  :     u32 shader_combo_idx = 0, model_combo_idx = 0;

  008cc	c7 84 24 80 00
	00 00 00 00 00
	00		 mov	 DWORD PTR shader_combo_idx$[rsp], 0
  008d7	c7 44 24 4c 00
	00 00 00	 mov	 DWORD PTR model_combo_idx$[rsp], 0

; 235  :     
; 236  :     v4 color[ARRAY_COUNT(combo_models)];
; 237  :     for (u32 i = 0; i < ARRAY_COUNT(combo_models); i++) {

  008df	c7 44 24 48 00
	00 00 00	 mov	 DWORD PTR i$4[rsp], 0
  008e7	eb 0a		 jmp	 SHORT $LN7@main
$LN5@main:
  008e9	8b 44 24 48	 mov	 eax, DWORD PTR i$4[rsp]
  008ed	ff c0		 inc	 eax
  008ef	89 44 24 48	 mov	 DWORD PTR i$4[rsp], eax
$LN7@main:
  008f3	8b 44 24 48	 mov	 eax, DWORD PTR i$4[rsp]
  008f7	48 83 f8 04	 cmp	 rax, 4
  008fb	0f 83 a9 00 00
	00		 jae	 $LN6@main

; 238  :         color[i].X = colors[i].r/255;

  00901	8b 44 24 48	 mov	 eax, DWORD PTR i$4[rsp]
  00905	0f b6 84 84 90
	3f 00 00	 movzx	 eax, BYTE PTR colors$[rsp+rax*4]
  0090d	99		 cdq
  0090e	b9 ff 00 00 00	 mov	 ecx, 255		; 000000ffH
  00913	f7 f9		 idiv	 ecx
  00915	f3 0f 2a c0	 cvtsi2ss xmm0, eax
  00919	8b 44 24 48	 mov	 eax, DWORD PTR i$4[rsp]
  0091d	48 6b c0 10	 imul	 rax, rax, 16
  00921	f3 0f 11 84 04
	00 40 00 00	 movss	 DWORD PTR color$[rsp+rax], xmm0

; 239  :         color[i].Y = colors[i].g/255;

  0092a	8b 44 24 48	 mov	 eax, DWORD PTR i$4[rsp]
  0092e	0f b6 84 84 91
	3f 00 00	 movzx	 eax, BYTE PTR colors$[rsp+rax*4+1]
  00936	99		 cdq
  00937	b9 ff 00 00 00	 mov	 ecx, 255		; 000000ffH
  0093c	f7 f9		 idiv	 ecx
  0093e	f3 0f 2a c0	 cvtsi2ss xmm0, eax
  00942	8b 44 24 48	 mov	 eax, DWORD PTR i$4[rsp]
  00946	48 6b c0 10	 imul	 rax, rax, 16
  0094a	f3 0f 11 84 04
	04 40 00 00	 movss	 DWORD PTR color$[rsp+rax+4], xmm0

; 240  :         color[i].Z = colors[i].b/255;

  00953	8b 44 24 48	 mov	 eax, DWORD PTR i$4[rsp]
  00957	0f b6 84 84 92
	3f 00 00	 movzx	 eax, BYTE PTR colors$[rsp+rax*4+2]
  0095f	99		 cdq
  00960	b9 ff 00 00 00	 mov	 ecx, 255		; 000000ffH
  00965	f7 f9		 idiv	 ecx
  00967	f3 0f 2a c0	 cvtsi2ss xmm0, eax
  0096b	8b 44 24 48	 mov	 eax, DWORD PTR i$4[rsp]
  0096f	48 6b c0 10	 imul	 rax, rax, 16
  00973	f3 0f 11 84 04
	08 40 00 00	 movss	 DWORD PTR color$[rsp+rax+8], xmm0

; 241  :         color[i].W = colors[i].a/255;

  0097c	8b 44 24 48	 mov	 eax, DWORD PTR i$4[rsp]
  00980	0f b6 84 84 93
	3f 00 00	 movzx	 eax, BYTE PTR colors$[rsp+rax*4+3]
  00988	99		 cdq
  00989	b9 ff 00 00 00	 mov	 ecx, 255		; 000000ffH
  0098e	f7 f9		 idiv	 ecx
  00990	f3 0f 2a c0	 cvtsi2ss xmm0, eax
  00994	8b 44 24 48	 mov	 eax, DWORD PTR i$4[rsp]
  00998	48 6b c0 10	 imul	 rax, rax, 16
  0099c	f3 0f 11 84 04
	0c 40 00 00	 movss	 DWORD PTR color$[rsp+rax+12], xmm0

; 242  :     }

  009a5	e9 3f ff ff ff	 jmp	 $LN5@main
$LN6@main:

; 243  :     
; 244  :     f64 last_time = glfwGetTime();

  009aa	e8 00 00 00 00	 call	 glfwGetTime
  009af	f2 0f 11 84 24
	58 01 00 00	 movsd	 QWORD PTR last_time$[rsp], xmm0

; 245  :     u32 frame_count = 0;

  009b8	c7 84 24 8c 00
	00 00 00 00 00
	00		 mov	 DWORD PTR frame_count$[rsp], 0

; 246  :     
; 247  :     v3 *p = NULL;

  009c3	48 c7 44 24 50
	00 00 00 00	 mov	 QWORD PTR p$[rsp], 0

; 248  :     p = (v3 *)stack_push_array(&p, 4);

  009cc	41 b8 0c 00 00
	00		 mov	 r8d, 12
  009d2	ba 04 00 00 00	 mov	 edx, 4
  009d7	48 8d 4c 24 50	 lea	 rcx, QWORD PTR p$[rsp]
  009dc	e8 00 00 00 00	 call	 ?_stack_push@@YAPEAXPEAPEAXII@Z ; _stack_push
  009e1	48 89 44 24 50	 mov	 QWORD PTR p$[rsp], rax

; 249  :     p[0] = HMM_V3(0.0f, 0.0f, 0.0f);

  009e6	0f 57 db	 xorps	 xmm3, xmm3
  009e9	0f 57 d2	 xorps	 xmm2, xmm2
  009ec	0f 57 c9	 xorps	 xmm1, xmm1
  009ef	48 8d 8c 24 48
	03 00 00	 lea	 rcx, QWORD PTR $T63[rsp]
  009f7	e8 00 00 00 00	 call	 HMM_V3
  009fc	48 8d 8c 24 80
	05 00 00	 lea	 rcx, QWORD PTR $T80[rsp]
  00a04	48 8b f9	 mov	 rdi, rcx
  00a07	48 8b f0	 mov	 rsi, rax
  00a0a	b9 0c 00 00 00	 mov	 ecx, 12
  00a0f	f3 a4		 rep movsb
  00a11	b8 0c 00 00 00	 mov	 eax, 12
  00a16	48 6b c0 00	 imul	 rax, rax, 0
  00a1a	48 8b 4c 24 50	 mov	 rcx, QWORD PTR p$[rsp]
  00a1f	48 8d 94 24 80
	05 00 00	 lea	 rdx, QWORD PTR $T80[rsp]
  00a27	48 8d 3c 01	 lea	 rdi, QWORD PTR [rcx+rax]
  00a2b	48 8b f2	 mov	 rsi, rdx
  00a2e	b9 0c 00 00 00	 mov	 ecx, 12
  00a33	f3 a4		 rep movsb

; 250  :     p[1] = HMM_V3(0.0f, 5.0f, 0.0f);

  00a35	0f 57 db	 xorps	 xmm3, xmm3
  00a38	f3 0f 10 15 00
	00 00 00	 movss	 xmm2, DWORD PTR __real@40a00000
  00a40	0f 57 c9	 xorps	 xmm1, xmm1
  00a43	48 8d 8c 24 58
	03 00 00	 lea	 rcx, QWORD PTR $T64[rsp]
  00a4b	e8 00 00 00 00	 call	 HMM_V3
  00a50	48 8d 8c 24 90
	05 00 00	 lea	 rcx, QWORD PTR $T81[rsp]
  00a58	48 8b f9	 mov	 rdi, rcx
  00a5b	48 8b f0	 mov	 rsi, rax
  00a5e	b9 0c 00 00 00	 mov	 ecx, 12
  00a63	f3 a4		 rep movsb
  00a65	b8 0c 00 00 00	 mov	 eax, 12
  00a6a	48 6b c0 01	 imul	 rax, rax, 1
  00a6e	48 8b 4c 24 50	 mov	 rcx, QWORD PTR p$[rsp]
  00a73	48 8d 94 24 90
	05 00 00	 lea	 rdx, QWORD PTR $T81[rsp]
  00a7b	48 8d 3c 01	 lea	 rdi, QWORD PTR [rcx+rax]
  00a7f	48 8b f2	 mov	 rsi, rdx
  00a82	b9 0c 00 00 00	 mov	 ecx, 12
  00a87	f3 a4		 rep movsb

; 251  :     p[2] = HMM_V3(5.0f, 5.0f, 0.0f);

  00a89	0f 57 db	 xorps	 xmm3, xmm3
  00a8c	f3 0f 10 15 00
	00 00 00	 movss	 xmm2, DWORD PTR __real@40a00000
  00a94	f3 0f 10 0d 00
	00 00 00	 movss	 xmm1, DWORD PTR __real@40a00000
  00a9c	48 8d 8c 24 68
	03 00 00	 lea	 rcx, QWORD PTR $T65[rsp]
  00aa4	e8 00 00 00 00	 call	 HMM_V3
  00aa9	48 8d 8c 24 a0
	05 00 00	 lea	 rcx, QWORD PTR $T82[rsp]
  00ab1	48 8b f9	 mov	 rdi, rcx
  00ab4	48 8b f0	 mov	 rsi, rax
  00ab7	b9 0c 00 00 00	 mov	 ecx, 12
  00abc	f3 a4		 rep movsb
  00abe	b8 0c 00 00 00	 mov	 eax, 12
  00ac3	48 6b c0 02	 imul	 rax, rax, 2
  00ac7	48 8b 4c 24 50	 mov	 rcx, QWORD PTR p$[rsp]
  00acc	48 8d 94 24 a0
	05 00 00	 lea	 rdx, QWORD PTR $T82[rsp]
  00ad4	48 8d 3c 01	 lea	 rdi, QWORD PTR [rcx+rax]
  00ad8	48 8b f2	 mov	 rsi, rdx
  00adb	b9 0c 00 00 00	 mov	 ecx, 12
  00ae0	f3 a4		 rep movsb

; 252  :     p[3] = HMM_V3(7.0f, 2.5f, 0.0f);

  00ae2	0f 57 db	 xorps	 xmm3, xmm3
  00ae5	f3 0f 10 15 00
	00 00 00	 movss	 xmm2, DWORD PTR __real@40200000
  00aed	f3 0f 10 0d 00
	00 00 00	 movss	 xmm1, DWORD PTR __real@40e00000
  00af5	48 8d 8c 24 78
	03 00 00	 lea	 rcx, QWORD PTR $T66[rsp]
  00afd	e8 00 00 00 00	 call	 HMM_V3
  00b02	48 8d 8c 24 c0
	05 00 00	 lea	 rcx, QWORD PTR $T84[rsp]
  00b0a	48 8b f9	 mov	 rdi, rcx
  00b0d	48 8b f0	 mov	 rsi, rax
  00b10	b9 0c 00 00 00	 mov	 ecx, 12
  00b15	f3 a4		 rep movsb
  00b17	b8 0c 00 00 00	 mov	 eax, 12
  00b1c	48 6b c0 03	 imul	 rax, rax, 3
  00b20	48 8b 4c 24 50	 mov	 rcx, QWORD PTR p$[rsp]
  00b25	48 8d 94 24 c0
	05 00 00	 lea	 rdx, QWORD PTR $T84[rsp]
  00b2d	48 8d 3c 01	 lea	 rdi, QWORD PTR [rcx+rax]
  00b31	48 8b f2	 mov	 rsi, rdx
  00b34	b9 0c 00 00 00	 mov	 ecx, 12
  00b39	f3 a4		 rep movsb

; 253  :     
; 254  :     char *c_type[] = { "None", "C1", "G1" };

  00b3b	48 8d 05 00 00
	00 00		 lea	 rax, OFFSET FLAT:$SG84855
  00b42	48 89 84 24 c0
	3f 00 00	 mov	 QWORD PTR c_type$[rsp], rax
  00b4a	48 8d 05 00 00
	00 00		 lea	 rax, OFFSET FLAT:$SG84856
  00b51	48 89 84 24 c8
	3f 00 00	 mov	 QWORD PTR c_type$[rsp+8], rax
  00b59	48 8d 05 00 00
	00 00		 lea	 rax, OFFSET FLAT:$SG84857
  00b60	48 89 84 24 d0
	3f 00 00	 mov	 QWORD PTR c_type$[rsp+16], rax

; 255  :     u32 c_selected = 0;

  00b68	c7 84 24 88 00
	00 00 00 00 00
	00		 mov	 DWORD PTR c_selected$[rsp], 0

; 256  :     char *a_type[] = { "De Castelgau", "Matrix Form" };

  00b73	48 8d 05 00 00
	00 00		 lea	 rax, OFFSET FLAT:$SG84858
  00b7a	48 89 84 24 08
	02 00 00	 mov	 QWORD PTR a_type$[rsp], rax
  00b82	48 8d 05 00 00
	00 00		 lea	 rax, OFFSET FLAT:$SG84859
  00b89	48 89 84 24 10
	02 00 00	 mov	 QWORD PTR a_type$[rsp+8], rax

; 257  :     u32 a_selected = 0;

  00b91	c7 84 24 c4 00
	00 00 00 00 00
	00		 mov	 DWORD PTR a_selected$[rsp], 0

; 258  :     f32 t = 0.05f;

  00b9c	f3 0f 10 05 00
	00 00 00	 movss	 xmm0, DWORD PTR __real@3d4ccccd
  00ba4	f3 0f 11 84 24
	f4 00 00 00	 movss	 DWORD PTR t$[rsp], xmm0

; 259  :     f32 debug_t = 0.5f;

  00bad	f3 0f 10 05 00
	00 00 00	 movss	 xmm0, DWORD PTR __real@3f000000
  00bb5	f3 0f 11 84 24
	fc 00 00 00	 movss	 DWORD PTR debug_t$[rsp], xmm0

; 260  :     u32 debug = 0;

  00bbe	c7 84 24 f8 00
	00 00 00 00 00
	00		 mov	 DWORD PTR debug$[rsp], 0

; 261  :     
; 262  :     glLineWidth(3.0f);

  00bc9	f3 0f 10 05 00
	00 00 00	 movss	 xmm0, DWORD PTR __real@40400000
  00bd1	ff 15 00 00 00
	00		 call	 QWORD PTR __imp_glLineWidth
$LN8@main:

; 263  :     
; 264  :     while(!glfwWindowShouldClose(window)) {

  00bd7	48 8b 8c 24 98
	00 00 00	 mov	 rcx, QWORD PTR window$[rsp]
  00bdf	e8 00 00 00 00	 call	 glfwWindowShouldClose
  00be4	85 c0		 test	 eax, eax
  00be6	0f 85 d6 0f 00
	00		 jne	 $LN9@main

; 265  :         
; 266  :         process_input(window, &gl, model_combo_idx);

  00bec	44 8b 44 24 4c	 mov	 r8d, DWORD PTR model_combo_idx$[rsp]
  00bf1	48 8d 94 24 f0
	03 00 00	 lea	 rdx, QWORD PTR gl$[rsp]
  00bf9	48 8b 8c 24 98
	00 00 00	 mov	 rcx, QWORD PTR window$[rsp]
  00c01	e8 00 00 00 00	 call	 ?process_input@@YAXPEAUGLFWwindow@@PEAUgl_renderer@@I@Z ; process_input

; 267  :         
; 268  :         ImGui_ImplOpenGL3_NewFrame();

  00c06	e8 00 00 00 00	 call	 ?ImGui_ImplOpenGL3_NewFrame@@YAXXZ ; ImGui_ImplOpenGL3_NewFrame

; 269  :         ImGui_ImplGlfw_NewFrame();

  00c0b	e8 00 00 00 00	 call	 ?ImGui_ImplGlfw_NewFrame@@YAXXZ ; ImGui_ImplGlfw_NewFrame

; 270  :         ImGui::NewFrame();

  00c10	e8 00 00 00 00	 call	 ?NewFrame@ImGui@@YAXXZ	; ImGui::NewFrame

; 271  :         
; 272  :         ImGuiWindowFlags window_flags = ImGuiWindowFlags_NoDocking | ImGuiWindowFlags_NoTitleBar | ImGuiWindowFlags_NoCollapse | ImGuiWindowFlags_NoResize | ImGuiWindowFlags_NoMove | ImGuiWindowFlags_NoBackground;

  00c15	c7 84 24 e4 00
	00 00 a7 00 08
	00		 mov	 DWORD PTR window_flags$21[rsp], 524455 ; 000800a7H

; 273  :         
; 274  :         ImGuiViewport *viewport = ImGui::GetMainViewport();

  00c20	e8 00 00 00 00	 call	 ?GetMainViewport@ImGui@@YAPEAUImGuiViewport@@XZ ; ImGui::GetMainViewport
  00c25	48 89 84 24 38
	01 00 00	 mov	 QWORD PTR viewport$27[rsp], rax

; 275  :         ImGui::SetNextWindowPos(viewport->Pos);

  00c2d	0f 57 d2	 xorps	 xmm2, xmm2
  00c30	0f 57 c9	 xorps	 xmm1, xmm1
  00c33	48 8d 8c 24 c0
	02 00 00	 lea	 rcx, QWORD PTR $T50[rsp]
  00c3b	e8 00 00 00 00	 call	 ??0ImVec2@@QEAA@MM@Z	; ImVec2::ImVec2
  00c40	48 8b 8c 24 38
	01 00 00	 mov	 rcx, QWORD PTR viewport$27[rsp]
  00c48	48 83 c1 08	 add	 rcx, 8
  00c4c	4c 8b c0	 mov	 r8, rax
  00c4f	33 d2		 xor	 edx, edx
  00c51	e8 00 00 00 00	 call	 ?SetNextWindowPos@ImGui@@YAXAEBUImVec2@@H0@Z ; ImGui::SetNextWindowPos

; 276  :         ImGui::SetNextWindowSize(viewport->Size);

  00c56	48 8b 84 24 38
	01 00 00	 mov	 rax, QWORD PTR viewport$27[rsp]
  00c5e	48 83 c0 10	 add	 rax, 16
  00c62	33 d2		 xor	 edx, edx
  00c64	48 8b c8	 mov	 rcx, rax
  00c67	e8 00 00 00 00	 call	 ?SetNextWindowSize@ImGui@@YAXAEBUImVec2@@H@Z ; ImGui::SetNextWindowSize

; 277  :         ImGui::SetNextWindowViewport(viewport->ID);

  00c6c	48 8b 84 24 38
	01 00 00	 mov	 rax, QWORD PTR viewport$27[rsp]
  00c74	8b 08		 mov	 ecx, DWORD PTR [rax]
  00c76	e8 00 00 00 00	 call	 ?SetNextWindowViewport@ImGui@@YAXI@Z ; ImGui::SetNextWindowViewport

; 278  :         
; 279  :         ImGui::PushStyleVar(ImGuiStyleVar_WindowRounding, 0.0f);

  00c7b	0f 57 c9	 xorps	 xmm1, xmm1
  00c7e	b9 03 00 00 00	 mov	 ecx, 3
  00c83	e8 00 00 00 00	 call	 ?PushStyleVar@ImGui@@YAXHM@Z ; ImGui::PushStyleVar

; 280  :         ImGui::PushStyleVar(ImGuiStyleVar_WindowBorderSize, 0.0f);

  00c88	0f 57 c9	 xorps	 xmm1, xmm1
  00c8b	b9 04 00 00 00	 mov	 ecx, 4
  00c90	e8 00 00 00 00	 call	 ?PushStyleVar@ImGui@@YAXHM@Z ; ImGui::PushStyleVar

; 281  :         ImGui::PushStyleVar(ImGuiStyleVar_WindowPadding, ImVec2(0.0f, 0.0f));

  00c95	0f 57 d2	 xorps	 xmm2, xmm2
  00c98	0f 57 c9	 xorps	 xmm1, xmm1
  00c9b	48 8d 8c 24 c8
	02 00 00	 lea	 rcx, QWORD PTR $T51[rsp]
  00ca3	e8 00 00 00 00	 call	 ??0ImVec2@@QEAA@MM@Z	; ImVec2::ImVec2
  00ca8	48 8b d0	 mov	 rdx, rax
  00cab	b9 02 00 00 00	 mov	 ecx, 2
  00cb0	e8 00 00 00 00	 call	 ?PushStyleVar@ImGui@@YAXHAEBUImVec2@@@Z ; ImGui::PushStyleVar

; 282  :         ImGui::Begin("InvisibleWindow", nullptr, window_flags);

  00cb5	44 8b 84 24 e4
	00 00 00	 mov	 r8d, DWORD PTR window_flags$21[rsp]
  00cbd	33 d2		 xor	 edx, edx
  00cbf	48 8d 0d 00 00
	00 00		 lea	 rcx, OFFSET FLAT:$SG84860
  00cc6	e8 00 00 00 00	 call	 ?Begin@ImGui@@YA_NPEBDPEA_NH@Z ; ImGui::Begin

; 283  :         ImGui::PopStyleVar(3);

  00ccb	b9 03 00 00 00	 mov	 ecx, 3
  00cd0	e8 00 00 00 00	 call	 ?PopStyleVar@ImGui@@YAXH@Z ; ImGui::PopStyleVar

; 284  :         ImGuiID dock_space_id = ImGui::GetID("InvisibleWindowSockSpace");

  00cd5	48 8d 0d 00 00
	00 00		 lea	 rcx, OFFSET FLAT:$SG84861
  00cdc	e8 00 00 00 00	 call	 ?GetID@ImGui@@YAIPEBD@Z	; ImGui::GetID
  00ce1	89 84 24 e8 00
	00 00		 mov	 DWORD PTR dock_space_id$22[rsp], eax

; 285  :         ImGui::DockSpace(dock_space_id, ImVec2(0.0f, 0.0f), ImGuiDockNodeFlags_PassthruCentralNode);

  00ce8	0f 57 d2	 xorps	 xmm2, xmm2
  00ceb	0f 57 c9	 xorps	 xmm1, xmm1
  00cee	48 8d 8c 24 d0
	02 00 00	 lea	 rcx, QWORD PTR $T52[rsp]
  00cf6	e8 00 00 00 00	 call	 ??0ImVec2@@QEAA@MM@Z	; ImVec2::ImVec2
  00cfb	45 33 c9	 xor	 r9d, r9d
  00cfe	41 b8 08 00 00
	00		 mov	 r8d, 8
  00d04	48 8b d0	 mov	 rdx, rax
  00d07	8b 8c 24 e8 00
	00 00		 mov	 ecx, DWORD PTR dock_space_id$22[rsp]
  00d0e	e8 00 00 00 00	 call	 ?DockSpace@ImGui@@YAIIAEBUImVec2@@HPEBUImGuiWindowClass@@@Z ; ImGui::DockSpace

; 286  :         ImGui::End();

  00d13	e8 00 00 00 00	 call	 ?End@ImGui@@YAXXZ	; ImGui::End

; 287  :         
; 288  :         
; 289  :         push_mesh(&gl, &assets, models+model_combo_idx, colors[model_combo_idx]);

  00d18	8b 44 24 4c	 mov	 eax, DWORD PTR model_combo_idx$[rsp]
  00d1c	8b 4c 24 4c	 mov	 ecx, DWORD PTR model_combo_idx$[rsp]
  00d20	48 6b c9 10	 imul	 rcx, rcx, 16
  00d24	48 8d 8c 0c a0
	40 00 00	 lea	 rcx, QWORD PTR models$[rsp+rcx]
  00d2c	44 8b 8c 84 90
	3f 00 00	 mov	 r9d, DWORD PTR colors$[rsp+rax*4]
  00d34	4c 8b c1	 mov	 r8, rcx
  00d37	48 8d 94 24 a0
	01 00 00	 lea	 rdx, QWORD PTR assets$[rsp]
  00d3f	48 8d 8c 24 f0
	03 00 00	 lea	 rcx, QWORD PTR gl$[rsp]
  00d47	e8 00 00 00 00	 call	 ?push_mesh@@YAXPEAUgl_renderer@@PEAUasset_manager_t@@PEAUmodel_info_t@@Ucolor_t@@@Z ; push_mesh

; 290  :         
; 291  :         render_mesh(&gl, gl.entities[model_combo_idx].m_info);

  00d4c	8b 44 24 4c	 mov	 eax, DWORD PTR model_combo_idx$[rsp]
  00d50	48 6b c0 38	 imul	 rax, rax, 56		; 00000038H
  00d54	48 8d 8c 24 10
	03 00 00	 lea	 rcx, QWORD PTR $T59[rsp]
  00d5c	48 8b 94 24 28
	04 00 00	 mov	 rdx, QWORD PTR gl$[rsp+56]
  00d64	48 8b f9	 mov	 rdi, rcx
  00d67	48 8d 34 02	 lea	 rsi, QWORD PTR [rdx+rax]
  00d6b	b9 10 00 00 00	 mov	 ecx, 16
  00d70	f3 a4		 rep movsb
  00d72	48 8d 94 24 10
	03 00 00	 lea	 rdx, QWORD PTR $T59[rsp]
  00d7a	48 8d 8c 24 f0
	03 00 00	 lea	 rcx, QWORD PTR gl$[rsp]
  00d82	e8 00 00 00 00	 call	 ?render_mesh@@YAXPEAUgl_renderer@@Umodel_info_t@@@Z ; render_mesh

; 292  :         
; 293  :         v3 *rp = NULL;

  00d87	48 c7 84 24 40
	01 00 00 00 00
	00 00		 mov	 QWORD PTR rp$28[rsp], 0

; 294  :         
; 295  :         /*if (a_selected == 0) {
; 296  :             u32 p_count = get_stack_count(p);
; 297  :             u32 cp_count;
; 298  :             for (u32 i = 0; i < p_count-1; i += 3) {
; 299  :                 cp_count = MIN(p_count-i, 4);
; 300  :                 de_castelgau(p+i, cp_count, t, &rp, 0, 0, NULL);
; 301  :                 
; 302  :                 push_curve(&gl, rp, get_stack_count(rp), color_t{255, 255, 255, 255});
; 303  :                 stack_clear(rp);
; 304  :                 
; 305  :                 de_castelgau(p+i, cp_count, t, &rp, debug, debug_t, &gl);
; 306  :             }
; 307  :         }
; 308  :         else {
; 309  :             u32 p_count = get_stack_count(p);
; 310  :             for (u32 i = 4; i <= p_count; i += 3) {
; 311  :                 matrix_bezier_cubic(p+i-4, t, &rp);
; 312  :                 
; 313  :                 push_curve(&gl, rp, get_stack_count(rp), color_t{255, 255, 255, 255});
; 314  :                 if (debug)
; 315  :                     push_curve(&gl, p, 4, color_t{125, 0, 0, 255});
; 316  :             }
; 317  :         }*/
; 318  :         
; 319  :         stack_clear(rp);

  00d93	48 83 bc 24 40
	01 00 00 00	 cmp	 QWORD PTR rp$28[rsp], 0
  00d9c	74 1c		 je	 SHORT $LN55@main
  00d9e	48 8b 84 24 40
	01 00 00	 mov	 rax, QWORD PTR rp$28[rsp]
  00da6	c7 40 fc 00 00
	00 00		 mov	 DWORD PTR [rax-4], 0
  00dad	c7 84 24 ec 00
	00 00 00 00 00
	00		 mov	 DWORD PTR tv575[rsp], 0
  00db8	eb 0b		 jmp	 SHORT $LN56@main
$LN55@main:
  00dba	c7 84 24 ec 00
	00 00 00 00 00
	00		 mov	 DWORD PTR tv575[rsp], 0
$LN56@main:

; 320  :         
; 321  :         render(&gl, &assets, shader_combo_items[shader_combo_idx].shader);

  00dc5	8b 84 24 80 00
	00 00		 mov	 eax, DWORD PTR shader_combo_idx$[rsp]
  00dcc	48 6b c0 10	 imul	 rax, rax, 16
  00dd0	44 8b 84 04 48
	40 00 00	 mov	 r8d, DWORD PTR shader_combo_items$[rsp+rax+8]
  00dd8	48 8d 94 24 a0
	01 00 00	 lea	 rdx, QWORD PTR assets$[rsp]
  00de0	48 8d 8c 24 f0
	03 00 00	 lea	 rcx, QWORD PTR gl$[rsp]
  00de8	e8 00 00 00 00	 call	 ?render@@YAXPEAUgl_renderer@@PEAUasset_manager_t@@I@Z ; render

; 322  :         
; 323  :         glBindFramebuffer(GL_FRAMEBUFFER, 0);

  00ded	33 d2		 xor	 edx, edx
  00def	b9 40 8d 00 00	 mov	 ecx, 36160		; 00008d40H
  00df4	48 8b 05 00 00
	00 00		 mov	 rax, QWORD PTR __imp___glewBindFramebuffer
  00dfb	ff 10		 call	 QWORD PTR [rax]

; 324  :         
; 325  :         ImGui::Begin("Scene");

  00dfd	45 33 c0	 xor	 r8d, r8d
  00e00	33 d2		 xor	 edx, edx
  00e02	48 8d 0d 00 00
	00 00		 lea	 rcx, OFFSET FLAT:$SG84862
  00e09	e8 00 00 00 00	 call	 ?Begin@ImGui@@YA_NPEBDPEA_NH@Z ; ImGui::Begin

; 326  :         ImVec2 size = ImGui::GetContentRegionAvail();

  00e0e	48 8d 8c 24 d8
	00 00 00	 lea	 rcx, QWORD PTR size$20[rsp]
  00e16	e8 00 00 00 00	 call	 ?GetContentRegionAvail@ImGui@@YA?AUImVec2@@XZ ; ImGui::GetContentRegionAvail

; 327  :         
; 328  :         camera.aspect_ratio = size.x/size.y;

  00e1b	f3 0f 10 84 24
	d8 00 00 00	 movss	 xmm0, DWORD PTR size$20[rsp]
  00e24	f3 0f 5e 84 24
	dc 00 00 00	 divss	 xmm0, DWORD PTR size$20[rsp+4]
  00e2d	f3 0f 11 84 24
	24 06 00 00	 movss	 DWORD PTR camera$[rsp+84], xmm0

; 329  :         
; 330  :         ImGui::Image((ImTextureID)gl.fb.tex, ImVec2(size.x, size.y), 

  00e36	0f 57 c0	 xorps	 xmm0, xmm0
  00e39	f3 0f 11 44 24
	20		 movss	 DWORD PTR [rsp+32], xmm0
  00e3f	0f 57 db	 xorps	 xmm3, xmm3
  00e42	0f 57 d2	 xorps	 xmm2, xmm2
  00e45	0f 57 c9	 xorps	 xmm1, xmm1
  00e48	48 8d 8c 24 c8
	03 00 00	 lea	 rcx, QWORD PTR $T71[rsp]
  00e50	e8 00 00 00 00	 call	 ??0ImVec4@@QEAA@MMMM@Z	; ImVec4::ImVec4
  00e55	48 89 84 24 60
	01 00 00	 mov	 QWORD PTR tv623[rsp], rax
  00e5d	f3 0f 10 05 00
	00 00 00	 movss	 xmm0, DWORD PTR __real@3f800000
  00e65	f3 0f 11 44 24
	20		 movss	 DWORD PTR [rsp+32], xmm0
  00e6b	f3 0f 10 1d 00
	00 00 00	 movss	 xmm3, DWORD PTR __real@3f800000
  00e73	f3 0f 10 15 00
	00 00 00	 movss	 xmm2, DWORD PTR __real@3f800000
  00e7b	f3 0f 10 0d 00
	00 00 00	 movss	 xmm1, DWORD PTR __real@3f800000
  00e83	48 8d 8c 24 d8
	03 00 00	 lea	 rcx, QWORD PTR $T72[rsp]
  00e8b	e8 00 00 00 00	 call	 ??0ImVec4@@QEAA@MMMM@Z	; ImVec4::ImVec4
  00e90	48 89 84 24 68
	01 00 00	 mov	 QWORD PTR tv630[rsp], rax
  00e98	0f 57 d2	 xorps	 xmm2, xmm2
  00e9b	f3 0f 10 0d 00
	00 00 00	 movss	 xmm1, DWORD PTR __real@3f800000
  00ea3	48 8d 8c 24 d8
	02 00 00	 lea	 rcx, QWORD PTR $T53[rsp]
  00eab	e8 00 00 00 00	 call	 ??0ImVec2@@QEAA@MM@Z	; ImVec2::ImVec2
  00eb0	48 89 84 24 70
	01 00 00	 mov	 QWORD PTR tv637[rsp], rax
  00eb8	f3 0f 10 15 00
	00 00 00	 movss	 xmm2, DWORD PTR __real@3f800000
  00ec0	0f 57 c9	 xorps	 xmm1, xmm1
  00ec3	48 8d 8c 24 e0
	02 00 00	 lea	 rcx, QWORD PTR $T54[rsp]
  00ecb	e8 00 00 00 00	 call	 ??0ImVec2@@QEAA@MM@Z	; ImVec2::ImVec2
  00ed0	48 89 84 24 78
	01 00 00	 mov	 QWORD PTR tv642[rsp], rax
  00ed8	f3 0f 10 94 24
	dc 00 00 00	 movss	 xmm2, DWORD PTR size$20[rsp+4]
  00ee1	f3 0f 10 8c 24
	d8 00 00 00	 movss	 xmm1, DWORD PTR size$20[rsp]
  00eea	48 8d 8c 24 00
	03 00 00	 lea	 rcx, QWORD PTR $T58[rsp]
  00ef2	e8 00 00 00 00	 call	 ??0ImVec2@@QEAA@MM@Z	; ImVec2::ImVec2
  00ef7	8b 8c 24 ec 04
	00 00		 mov	 ecx, DWORD PTR gl$[rsp+252]
  00efe	48 8b 94 24 60
	01 00 00	 mov	 rdx, QWORD PTR tv623[rsp]
  00f06	48 89 54 24 28	 mov	 QWORD PTR [rsp+40], rdx
  00f0b	48 8b 94 24 68
	01 00 00	 mov	 rdx, QWORD PTR tv630[rsp]
  00f13	48 89 54 24 20	 mov	 QWORD PTR [rsp+32], rdx
  00f18	48 8b 94 24 70
	01 00 00	 mov	 rdx, QWORD PTR tv637[rsp]
  00f20	4c 8b ca	 mov	 r9, rdx
  00f23	48 8b 94 24 78
	01 00 00	 mov	 rdx, QWORD PTR tv642[rsp]
  00f2b	4c 8b c2	 mov	 r8, rdx
  00f2e	48 8b d0	 mov	 rdx, rax
  00f31	e8 00 00 00 00	 call	 ?Image@ImGui@@YAXPEAXAEBUImVec2@@11AEBUImVec4@@2@Z ; ImGui::Image

; 331  :                      ImVec2(0, 1), ImVec2(1, 0));
; 332  :         
; 333  :         ImGui::End();

  00f36	e8 00 00 00 00	 call	 ?End@ImGui@@YAXXZ	; ImGui::End

; 334  :         
; 335  :         ImGui::Begin("Properties");

  00f3b	45 33 c0	 xor	 r8d, r8d
  00f3e	33 d2		 xor	 edx, edx
  00f40	48 8d 0d 00 00
	00 00		 lea	 rcx, OFFSET FLAT:$SG84863
  00f47	e8 00 00 00 00	 call	 ?Begin@ImGui@@YA_NPEBDPEA_NH@Z ; ImGui::Begin

; 336  :         
; 337  :         if (ImGui::CollapsingHeader("Perspective"))

  00f4c	33 d2		 xor	 edx, edx
  00f4e	48 8d 0d 00 00
	00 00		 lea	 rcx, OFFSET FLAT:$SG84865
  00f55	e8 00 00 00 00	 call	 ?CollapsingHeader@ImGui@@YA_NPEBDH@Z ; ImGui::CollapsingHeader
  00f5a	0f b6 c0	 movzx	 eax, al
  00f5d	85 c0		 test	 eax, eax
  00f5f	0f 84 bf 00 00
	00		 je	 $LN32@main

; 338  :         {
; 339  :             ImGui::SliderFloat("FOV", &camera.fov, 0.0f, 90.0f);

  00f65	c7 44 24 28 00
	00 00 00	 mov	 DWORD PTR [rsp+40], 0
  00f6d	48 8d 05 00 00
	00 00		 lea	 rax, OFFSET FLAT:$SG84866
  00f74	48 89 44 24 20	 mov	 QWORD PTR [rsp+32], rax
  00f79	f3 0f 10 1d 00
	00 00 00	 movss	 xmm3, DWORD PTR __real@42b40000
  00f81	0f 57 d2	 xorps	 xmm2, xmm2
  00f84	48 8d 94 24 20
	06 00 00	 lea	 rdx, QWORD PTR camera$[rsp+80]
  00f8c	48 8d 0d 00 00
	00 00		 lea	 rcx, OFFSET FLAT:$SG84867
  00f93	e8 00 00 00 00	 call	 ?SliderFloat@ImGui@@YA_NPEBDPEAMMM0H@Z ; ImGui::SliderFloat

; 340  :             ImGui::DragFloat("Near Plane", &camera.near, 0.1f, 0.1f, 100.0f);

  00f98	c7 44 24 30 00
	00 00 00	 mov	 DWORD PTR [rsp+48], 0
  00fa0	48 8d 05 00 00
	00 00		 lea	 rax, OFFSET FLAT:$SG84868
  00fa7	48 89 44 24 28	 mov	 QWORD PTR [rsp+40], rax
  00fac	f3 0f 10 05 00
	00 00 00	 movss	 xmm0, DWORD PTR __real@42c80000
  00fb4	f3 0f 11 44 24
	20		 movss	 DWORD PTR [rsp+32], xmm0
  00fba	f3 0f 10 1d 00
	00 00 00	 movss	 xmm3, DWORD PTR __real@3dcccccd
  00fc2	f3 0f 10 15 00
	00 00 00	 movss	 xmm2, DWORD PTR __real@3dcccccd
  00fca	48 8d 94 24 28
	06 00 00	 lea	 rdx, QWORD PTR camera$[rsp+88]
  00fd2	48 8d 0d 00 00
	00 00		 lea	 rcx, OFFSET FLAT:$SG84869
  00fd9	e8 00 00 00 00	 call	 ?DragFloat@ImGui@@YA_NPEBDPEAMMMM0H@Z ; ImGui::DragFloat

; 341  :             ImGui::DragFloat("Far Plane", &camera.far, 0.1f, 0.1f, 100.0f);

  00fde	c7 44 24 30 00
	00 00 00	 mov	 DWORD PTR [rsp+48], 0
  00fe6	48 8d 05 00 00
	00 00		 lea	 rax, OFFSET FLAT:$SG84870
  00fed	48 89 44 24 28	 mov	 QWORD PTR [rsp+40], rax
  00ff2	f3 0f 10 05 00
	00 00 00	 movss	 xmm0, DWORD PTR __real@42c80000
  00ffa	f3 0f 11 44 24
	20		 movss	 DWORD PTR [rsp+32], xmm0
  01000	f3 0f 10 1d 00
	00 00 00	 movss	 xmm3, DWORD PTR __real@3dcccccd
  01008	f3 0f 10 15 00
	00 00 00	 movss	 xmm2, DWORD PTR __real@3dcccccd
  01010	48 8d 94 24 2c
	06 00 00	 lea	 rdx, QWORD PTR camera$[rsp+92]
  01018	48 8d 0d 00 00
	00 00		 lea	 rcx, OFFSET FLAT:$SG84871
  0101f	e8 00 00 00 00	 call	 ?DragFloat@ImGui@@YA_NPEBDPEAMMMM0H@Z ; ImGui::DragFloat
$LN32@main:

; 342  :         }
; 343  :         
; 344  :         if (ImGui::CollapsingHeader("Shader")) {

  01024	33 d2		 xor	 edx, edx
  01026	48 8d 0d 00 00
	00 00		 lea	 rcx, OFFSET FLAT:$SG84873
  0102d	e8 00 00 00 00	 call	 ?CollapsingHeader@ImGui@@YA_NPEBDH@Z ; ImGui::CollapsingHeader
  01032	0f b6 c0	 movzx	 eax, al
  01035	85 c0		 test	 eax, eax
  01037	0f 84 f9 01 00
	00		 je	 $LN33@main

; 345  :             if (ImGui::Button("Add Light")) {

  0103d	0f 57 d2	 xorps	 xmm2, xmm2
  01040	0f 57 c9	 xorps	 xmm1, xmm1
  01043	48 8d 8c 24 e8
	02 00 00	 lea	 rcx, QWORD PTR $T55[rsp]
  0104b	e8 00 00 00 00	 call	 ??0ImVec2@@QEAA@MM@Z	; ImVec2::ImVec2
  01050	48 8b d0	 mov	 rdx, rax
  01053	48 8d 0d 00 00
	00 00		 lea	 rcx, OFFSET FLAT:$SG84875
  0105a	e8 00 00 00 00	 call	 ?Button@ImGui@@YA_NPEBDAEBUImVec2@@@Z ; ImGui::Button
  0105f	0f b6 c0	 movzx	 eax, al
  01062	85 c0		 test	 eax, eax
  01064	0f 84 85 00 00
	00		 je	 $LN34@main

; 346  :                 if (gl.light_count < 6)

  0106a	83 bc 24 e0 04
	00 00 06	 cmp	 DWORD PTR gl$[rsp+240], 6
  01072	73 7b		 jae	 SHORT $LN34@main

; 347  :                     add_light(&gl, HMM_V3(0.0f, 0.0f, 0.0f));

  01074	0f 57 db	 xorps	 xmm3, xmm3
  01077	0f 57 d2	 xorps	 xmm2, xmm2
  0107a	0f 57 c9	 xorps	 xmm1, xmm1
  0107d	48 8d 8c 24 88
	03 00 00	 lea	 rcx, QWORD PTR $T67[rsp]
  01085	e8 00 00 00 00	 call	 HMM_V3
  0108a	48 8d 8c 24 b0
	05 00 00	 lea	 rcx, QWORD PTR $T83[rsp]
  01092	48 8b f9	 mov	 rdi, rcx
  01095	48 8b f0	 mov	 rsi, rax
  01098	b9 0c 00 00 00	 mov	 ecx, 12
  0109d	f3 a4		 rep movsb
  0109f	48 8d 84 24 b0
	02 00 00	 lea	 rax, QWORD PTR $T49[rsp]
  010a7	48 8d 8c 24 b0
	05 00 00	 lea	 rcx, QWORD PTR $T83[rsp]
  010af	48 8b f8	 mov	 rdi, rax
  010b2	48 8b f1	 mov	 rsi, rcx
  010b5	b9 0c 00 00 00	 mov	 ecx, 12
  010ba	f3 a4		 rep movsb
  010bc	f3 0f 10 05 00
	00 00 00	 movss	 xmm0, DWORD PTR __real@3d03126f
  010c4	f3 0f 11 44 24
	20		 movss	 DWORD PTR [rsp+32], xmm0
  010ca	f3 0f 10 1d 00
	00 00 00	 movss	 xmm3, DWORD PTR __real@3db851ec
  010d2	f3 0f 10 15 00
	00 00 00	 movss	 xmm2, DWORD PTR __real@3f800000
  010da	48 8d 94 24 b0
	02 00 00	 lea	 rdx, QWORD PTR $T49[rsp]
  010e2	48 8d 8c 24 f0
	03 00 00	 lea	 rcx, QWORD PTR gl$[rsp]
  010ea	e8 00 00 00 00	 call	 ?add_light@@YAXPEAUgl_renderer@@THMM_Vec3@@MMM@Z ; add_light
$LN34@main:

; 348  :             }
; 349  :             
; 350  :             u32 light_count = gl.light_count;

  010ef	8b 84 24 e0 04
	00 00		 mov	 eax, DWORD PTR gl$[rsp+240]
  010f6	89 84 24 f0 00
	00 00		 mov	 DWORD PTR light_count$23[rsp], eax

; 351  :             char buffer[32];
; 352  :             for (u32 i = 0; i < light_count; i++) {

  010fd	c7 44 24 6c 00
	00 00 00	 mov	 DWORD PTR i$10[rsp], 0
  01105	eb 0a		 jmp	 SHORT $LN12@main
$LN10@main:
  01107	8b 44 24 6c	 mov	 eax, DWORD PTR i$10[rsp]
  0110b	ff c0		 inc	 eax
  0110d	89 44 24 6c	 mov	 DWORD PTR i$10[rsp], eax
$LN12@main:
  01111	8b 84 24 f0 00
	00 00		 mov	 eax, DWORD PTR light_count$23[rsp]
  01118	39 44 24 6c	 cmp	 DWORD PTR i$10[rsp], eax
  0111c	73 3b		 jae	 SHORT $LN11@main

; 353  :                 sprintf(buffer, "Light Pos %u", i);

  0111e	44 8b 44 24 6c	 mov	 r8d, DWORD PTR i$10[rsp]
  01123	48 8d 15 00 00
	00 00		 lea	 rdx, OFFSET FLAT:$SG84877
  0112a	48 8d 8c 24 e0
	40 00 00	 lea	 rcx, QWORD PTR buffer$86[rsp]
  01132	e8 00 00 00 00	 call	 sprintf

; 354  :                 draw_vec3_widget(buffer, &gl.lights[i].pos);

  01137	8b 44 24 6c	 mov	 eax, DWORD PTR i$10[rsp]
  0113b	48 6b c0 18	 imul	 rax, rax, 24
  0113f	48 8d 84 04 50
	04 00 00	 lea	 rax, QWORD PTR gl$[rsp+rax+96]
  01147	48 8b d0	 mov	 rdx, rax
  0114a	48 8d 8c 24 e0
	40 00 00	 lea	 rcx, QWORD PTR buffer$86[rsp]
  01152	e8 00 00 00 00	 call	 ?draw_vec3_widget@@YAXPEBDPEATHMM_Vec3@@@Z ; draw_vec3_widget

; 355  :             }

  01157	eb ae		 jmp	 SHORT $LN10@main
$LN11@main:

; 356  :             
; 357  :             if (ImGui::BeginCombo("Shaders", shader_combo_items[shader_combo_idx].name))

  01159	8b 84 24 80 00
	00 00		 mov	 eax, DWORD PTR shader_combo_idx$[rsp]
  01160	48 6b c0 10	 imul	 rax, rax, 16
  01164	45 33 c0	 xor	 r8d, r8d
  01167	48 8b 94 04 40
	40 00 00	 mov	 rdx, QWORD PTR shader_combo_items$[rsp+rax]
  0116f	48 8d 0d 00 00
	00 00		 lea	 rcx, OFFSET FLAT:$SG84879
  01176	e8 00 00 00 00	 call	 ?BeginCombo@ImGui@@YA_NPEBD0H@Z ; ImGui::BeginCombo
  0117b	0f b6 c0	 movzx	 eax, al
  0117e	85 c0		 test	 eax, eax
  01180	0f 84 b0 00 00
	00		 je	 $LN33@main

; 358  :             {
; 359  :                 for(u32 n = 0; n < ARRAY_COUNT(shader_combo_items); n++)

  01186	c7 44 24 5c 00
	00 00 00	 mov	 DWORD PTR n$6[rsp], 0
  0118e	eb 0a		 jmp	 SHORT $LN15@main
$LN13@main:
  01190	8b 44 24 5c	 mov	 eax, DWORD PTR n$6[rsp]
  01194	ff c0		 inc	 eax
  01196	89 44 24 5c	 mov	 DWORD PTR n$6[rsp], eax
$LN15@main:
  0119a	8b 44 24 5c	 mov	 eax, DWORD PTR n$6[rsp]
  0119e	48 83 f8 06	 cmp	 rax, 6
  011a2	0f 83 89 00 00
	00		 jae	 $LN14@main

; 360  :                 {
; 361  :                     bool is_selected = shader_combo_idx == n;

  011a8	8b 44 24 5c	 mov	 eax, DWORD PTR n$6[rsp]
  011ac	39 84 24 80 00
	00 00		 cmp	 DWORD PTR shader_combo_idx$[rsp], eax
  011b3	75 0d		 jne	 SHORT $LN57@main
  011b5	c7 84 24 bc 00
	00 00 01 00 00
	00		 mov	 DWORD PTR tv732[rsp], 1
  011c0	eb 0b		 jmp	 SHORT $LN58@main
$LN57@main:
  011c2	c7 84 24 bc 00
	00 00 00 00 00
	00		 mov	 DWORD PTR tv732[rsp], 0
$LN58@main:
  011cd	0f b6 84 24 bc
	00 00 00	 movzx	 eax, BYTE PTR tv732[rsp]
  011d5	88 44 24 44	 mov	 BYTE PTR is_selected$2[rsp], al

; 362  :                     if (ImGui::Selectable(shader_combo_items[n].name, is_selected))

  011d9	0f 57 d2	 xorps	 xmm2, xmm2
  011dc	0f 57 c9	 xorps	 xmm1, xmm1
  011df	48 8d 8c 24 20
	03 00 00	 lea	 rcx, QWORD PTR $T60[rsp]
  011e7	e8 00 00 00 00	 call	 ??0ImVec2@@QEAA@MM@Z	; ImVec2::ImVec2
  011ec	8b 4c 24 5c	 mov	 ecx, DWORD PTR n$6[rsp]
  011f0	48 6b c9 10	 imul	 rcx, rcx, 16
  011f4	4c 8b c8	 mov	 r9, rax
  011f7	45 33 c0	 xor	 r8d, r8d
  011fa	0f b6 54 24 44	 movzx	 edx, BYTE PTR is_selected$2[rsp]
  011ff	48 8b 8c 0c 40
	40 00 00	 mov	 rcx, QWORD PTR shader_combo_items$[rsp+rcx]
  01207	e8 00 00 00 00	 call	 ?Selectable@ImGui@@YA_NPEBD_NHAEBUImVec2@@@Z ; ImGui::Selectable
  0120c	0f b6 c0	 movzx	 eax, al
  0120f	85 c0		 test	 eax, eax
  01211	74 0b		 je	 SHORT $LN37@main

; 363  :                         shader_combo_idx = n;

  01213	8b 44 24 5c	 mov	 eax, DWORD PTR n$6[rsp]
  01217	89 84 24 80 00
	00 00		 mov	 DWORD PTR shader_combo_idx$[rsp], eax
$LN37@main:

; 364  :                     
; 365  :                     if (is_selected)

  0121e	0f b6 44 24 44	 movzx	 eax, BYTE PTR is_selected$2[rsp]
  01223	85 c0		 test	 eax, eax
  01225	74 05		 je	 SHORT $LN38@main

; 366  :                         ImGui::SetItemDefaultFocus();

  01227	e8 00 00 00 00	 call	 ?SetItemDefaultFocus@ImGui@@YAXXZ ; ImGui::SetItemDefaultFocus
$LN38@main:

; 367  :                 }

  0122c	e9 5f ff ff ff	 jmp	 $LN13@main
$LN14@main:

; 368  :                 
; 369  :                 ImGui::EndCombo();

  01231	e8 00 00 00 00	 call	 ?EndCombo@ImGui@@YAXXZ	; ImGui::EndCombo
$LN33@main:

; 370  :             }
; 371  :         }
; 372  :         
; 373  :         entity_t *entity = gl.entities+model_combo_idx;

  01236	8b 44 24 4c	 mov	 eax, DWORD PTR model_combo_idx$[rsp]
  0123a	48 6b c0 38	 imul	 rax, rax, 56		; 00000038H
  0123e	48 8b 8c 24 28
	04 00 00	 mov	 rcx, QWORD PTR gl$[rsp+56]
  01246	48 03 c8	 add	 rcx, rax
  01249	48 8b c1	 mov	 rax, rcx
  0124c	48 89 84 24 a0
	00 00 00	 mov	 QWORD PTR entity$17[rsp], rax

; 374  :         if (ImGui::CollapsingHeader("Model")) {

  01254	33 d2		 xor	 edx, edx
  01256	48 8d 0d 00 00
	00 00		 lea	 rcx, OFFSET FLAT:$SG84883
  0125d	e8 00 00 00 00	 call	 ?CollapsingHeader@ImGui@@YA_NPEBDH@Z ; ImGui::CollapsingHeader
  01262	0f b6 c0	 movzx	 eax, al
  01265	85 c0		 test	 eax, eax
  01267	0f 84 f0 01 00
	00		 je	 $LN39@main

; 375  :             if (ImGui::BeginCombo("Models", combo_models[model_combo_idx]))

  0126d	8b 44 24 4c	 mov	 eax, DWORD PTR model_combo_idx$[rsp]
  01271	45 33 c0	 xor	 r8d, r8d
  01274	48 8b 94 c4 a0
	3f 00 00	 mov	 rdx, QWORD PTR combo_models$[rsp+rax*8]
  0127c	48 8d 0d 00 00
	00 00		 lea	 rcx, OFFSET FLAT:$SG84885
  01283	e8 00 00 00 00	 call	 ?BeginCombo@ImGui@@YA_NPEBD0H@Z ; ImGui::BeginCombo
  01288	0f b6 c0	 movzx	 eax, al
  0128b	85 c0		 test	 eax, eax
  0128d	0f 84 a2 00 00
	00		 je	 $LN40@main

; 376  :             {
; 377  :                 for(u32 n = 0; n < ARRAY_COUNT(combo_models); n++)

  01293	c7 44 24 60 00
	00 00 00	 mov	 DWORD PTR n$7[rsp], 0
  0129b	eb 0a		 jmp	 SHORT $LN18@main
$LN16@main:
  0129d	8b 44 24 60	 mov	 eax, DWORD PTR n$7[rsp]
  012a1	ff c0		 inc	 eax
  012a3	89 44 24 60	 mov	 DWORD PTR n$7[rsp], eax
$LN18@main:
  012a7	8b 44 24 60	 mov	 eax, DWORD PTR n$7[rsp]
  012ab	48 83 f8 04	 cmp	 rax, 4
  012af	73 7f		 jae	 SHORT $LN17@main

; 378  :                 {
; 379  :                     bool is_selected = model_combo_idx == n;

  012b1	8b 44 24 60	 mov	 eax, DWORD PTR n$7[rsp]
  012b5	39 44 24 4c	 cmp	 DWORD PTR model_combo_idx$[rsp], eax
  012b9	75 0d		 jne	 SHORT $LN59@main
  012bb	c7 84 24 c0 00
	00 00 01 00 00
	00		 mov	 DWORD PTR tv804[rsp], 1
  012c6	eb 0b		 jmp	 SHORT $LN60@main
$LN59@main:
  012c8	c7 84 24 c0 00
	00 00 00 00 00
	00		 mov	 DWORD PTR tv804[rsp], 0
$LN60@main:
  012d3	0f b6 84 24 c0
	00 00 00	 movzx	 eax, BYTE PTR tv804[rsp]
  012db	88 44 24 45	 mov	 BYTE PTR is_selected$3[rsp], al

; 380  :                     if (ImGui::Selectable(combo_models[n], is_selected))

  012df	0f 57 d2	 xorps	 xmm2, xmm2
  012e2	0f 57 c9	 xorps	 xmm1, xmm1
  012e5	48 8d 8c 24 f8
	02 00 00	 lea	 rcx, QWORD PTR $T57[rsp]
  012ed	e8 00 00 00 00	 call	 ??0ImVec2@@QEAA@MM@Z	; ImVec2::ImVec2
  012f2	8b 4c 24 60	 mov	 ecx, DWORD PTR n$7[rsp]
  012f6	4c 8b c8	 mov	 r9, rax
  012f9	45 33 c0	 xor	 r8d, r8d
  012fc	0f b6 54 24 45	 movzx	 edx, BYTE PTR is_selected$3[rsp]
  01301	48 8b 8c cc a0
	3f 00 00	 mov	 rcx, QWORD PTR combo_models$[rsp+rcx*8]
  01309	e8 00 00 00 00	 call	 ?Selectable@ImGui@@YA_NPEBD_NHAEBUImVec2@@@Z ; ImGui::Selectable
  0130e	0f b6 c0	 movzx	 eax, al
  01311	85 c0		 test	 eax, eax
  01313	74 08		 je	 SHORT $LN41@main

; 381  :                         model_combo_idx = n;

  01315	8b 44 24 60	 mov	 eax, DWORD PTR n$7[rsp]
  01319	89 44 24 4c	 mov	 DWORD PTR model_combo_idx$[rsp], eax
$LN41@main:

; 382  :                     
; 383  :                     if (is_selected)

  0131d	0f b6 44 24 45	 movzx	 eax, BYTE PTR is_selected$3[rsp]
  01322	85 c0		 test	 eax, eax
  01324	74 05		 je	 SHORT $LN42@main

; 384  :                         ImGui::SetItemDefaultFocus();

  01326	e8 00 00 00 00	 call	 ?SetItemDefaultFocus@ImGui@@YAXXZ ; ImGui::SetItemDefaultFocus
$LN42@main:

; 385  :                 }

  0132b	e9 6d ff ff ff	 jmp	 $LN16@main
$LN17@main:

; 386  :                 
; 387  :                 ImGui::EndCombo();

  01330	e8 00 00 00 00	 call	 ?EndCombo@ImGui@@YAXXZ	; ImGui::EndCombo
$LN40@main:

; 388  :             }
; 389  :             
; 390  :             draw_vec3_widget("Pos", &entity->pos);

  01335	48 8b 84 24 a0
	00 00 00	 mov	 rax, QWORD PTR entity$17[rsp]
  0133d	48 83 c0 10	 add	 rax, 16
  01341	48 8b d0	 mov	 rdx, rax
  01344	48 8d 0d 00 00
	00 00		 lea	 rcx, OFFSET FLAT:$SG84888
  0134b	e8 00 00 00 00	 call	 ?draw_vec3_widget@@YAXPEBDPEATHMM_Vec3@@@Z ; draw_vec3_widget

; 391  :             draw_vec3_widget("Rot", &entity->rot);

  01350	48 8b 84 24 a0
	00 00 00	 mov	 rax, QWORD PTR entity$17[rsp]
  01358	48 83 c0 1c	 add	 rax, 28
  0135c	48 8b d0	 mov	 rdx, rax
  0135f	48 8d 0d 00 00
	00 00		 lea	 rcx, OFFSET FLAT:$SG84889
  01366	e8 00 00 00 00	 call	 ?draw_vec3_widget@@YAXPEBDPEATHMM_Vec3@@@Z ; draw_vec3_widget

; 392  :             draw_vec3_widget("Scale", &entity->scale);

  0136b	48 8b 84 24 a0
	00 00 00	 mov	 rax, QWORD PTR entity$17[rsp]
  01373	48 83 c0 28	 add	 rax, 40			; 00000028H
  01377	48 8b d0	 mov	 rdx, rax
  0137a	48 8d 0d 00 00
	00 00		 lea	 rcx, OFFSET FLAT:$SG84890
  01381	e8 00 00 00 00	 call	 ?draw_vec3_widget@@YAXPEBDPEATHMM_Vec3@@@Z ; draw_vec3_widget

; 393  :             
; 394  :             ImGui::ColorPicker4("Color", (float *)color[model_combo_idx].Elements, ImGuiColorEditFlags_Float);

  01386	8b 44 24 4c	 mov	 eax, DWORD PTR model_combo_idx$[rsp]
  0138a	48 6b c0 10	 imul	 rax, rax, 16
  0138e	48 8d 84 04 00
	40 00 00	 lea	 rax, QWORD PTR color$[rsp+rax]
  01396	45 33 c9	 xor	 r9d, r9d
  01399	41 b8 00 00 00
	01		 mov	 r8d, 16777216		; 01000000H
  0139f	48 8b d0	 mov	 rdx, rax
  013a2	48 8d 0d 00 00
	00 00		 lea	 rcx, OFFSET FLAT:$SG84891
  013a9	e8 00 00 00 00	 call	 ?ColorPicker4@ImGui@@YA_NPEBDQEAMHPEBM@Z ; ImGui::ColorPicker4

; 395  :             color_t temp; v4 tempf = color[model_combo_idx];

  013ae	8b 44 24 4c	 mov	 eax, DWORD PTR model_combo_idx$[rsp]
  013b2	48 6b c0 10	 imul	 rax, rax, 16
  013b6	0f 10 84 04 00
	40 00 00	 movups	 xmm0, XMMWORD PTR color$[rsp+rax]
  013be	66 0f 7f 84 24
	20 05 00 00	 movdqa	 XMMWORD PTR tempf$74[rsp], xmm0

; 396  :             temp.r = tempf.X*255; temp.g = tempf.Y*255; temp.b = tempf.Z*255; temp.a = tempf.W*255;

  013c7	f3 0f 10 84 24
	20 05 00 00	 movss	 xmm0, DWORD PTR tempf$74[rsp]
  013d0	f3 0f 59 05 00
	00 00 00	 mulss	 xmm0, DWORD PTR __real@437f0000
  013d8	f3 0f 2c c0	 cvttss2si eax, xmm0
  013dc	88 84 24 84 00
	00 00		 mov	 BYTE PTR temp$15[rsp], al
  013e3	f3 0f 10 84 24
	24 05 00 00	 movss	 xmm0, DWORD PTR tempf$74[rsp+4]
  013ec	f3 0f 59 05 00
	00 00 00	 mulss	 xmm0, DWORD PTR __real@437f0000
  013f4	f3 0f 2c c0	 cvttss2si eax, xmm0
  013f8	88 84 24 85 00
	00 00		 mov	 BYTE PTR temp$15[rsp+1], al
  013ff	f3 0f 10 84 24
	28 05 00 00	 movss	 xmm0, DWORD PTR tempf$74[rsp+8]
  01408	f3 0f 59 05 00
	00 00 00	 mulss	 xmm0, DWORD PTR __real@437f0000
  01410	f3 0f 2c c0	 cvttss2si eax, xmm0
  01414	88 84 24 86 00
	00 00		 mov	 BYTE PTR temp$15[rsp+2], al
  0141b	f3 0f 10 84 24
	2c 05 00 00	 movss	 xmm0, DWORD PTR tempf$74[rsp+12]
  01424	f3 0f 59 05 00
	00 00 00	 mulss	 xmm0, DWORD PTR __real@437f0000
  0142c	f3 0f 2c c0	 cvttss2si eax, xmm0
  01430	88 84 24 87 00
	00 00		 mov	 BYTE PTR temp$15[rsp+3], al

; 397  :             colors[model_combo_idx] = temp;

  01437	8b 44 24 4c	 mov	 eax, DWORD PTR model_combo_idx$[rsp]
  0143b	8b 8c 24 84 00
	00 00		 mov	 ecx, DWORD PTR temp$15[rsp]
  01442	89 8c 84 90 3f
	00 00		 mov	 DWORD PTR colors$[rsp+rax*4], ecx

; 398  :             
; 399  :             ImGui::Checkbox("Use Textures", (bool *)&gl.use_textures);

  01449	48 8d 94 24 fc
	04 00 00	 lea	 rdx, QWORD PTR gl$[rsp+268]
  01451	48 8d 0d 00 00
	00 00		 lea	 rcx, OFFSET FLAT:$SG84892
  01458	e8 00 00 00 00	 call	 ?Checkbox@ImGui@@YA_NPEBDPEA_N@Z ; ImGui::Checkbox
$LN39@main:

; 400  :             
; 401  :         }
; 402  :         
; 403  :         if (ImGui::CollapsingHeader("Curves", ImGuiTreeNodeFlags_DefaultOpen)) {

  0145d	ba 20 00 00 00	 mov	 edx, 32			; 00000020H
  01462	48 8d 0d 00 00
	00 00		 lea	 rcx, OFFSET FLAT:$SG84894
  01469	e8 00 00 00 00	 call	 ?CollapsingHeader@ImGui@@YA_NPEBDH@Z ; ImGui::CollapsingHeader
  0146e	0f b6 c0	 movzx	 eax, al
  01471	85 c0		 test	 eax, eax
  01473	0f 84 ac 03 00
	00		 je	 $LN43@main

; 404  :             ImGui::SliderFloat("dt", &t, 0.001f, 1.0f);

  01479	c7 44 24 28 00
	00 00 00	 mov	 DWORD PTR [rsp+40], 0
  01481	48 8d 05 00 00
	00 00		 lea	 rax, OFFSET FLAT:$SG84895
  01488	48 89 44 24 20	 mov	 QWORD PTR [rsp+32], rax
  0148d	f3 0f 10 1d 00
	00 00 00	 movss	 xmm3, DWORD PTR __real@3f800000
  01495	f3 0f 10 15 00
	00 00 00	 movss	 xmm2, DWORD PTR __real@3a83126f
  0149d	48 8d 94 24 f4
	00 00 00	 lea	 rdx, QWORD PTR t$[rsp]
  014a5	48 8d 0d 00 00
	00 00		 lea	 rcx, OFFSET FLAT:$SG84896
  014ac	e8 00 00 00 00	 call	 ?SliderFloat@ImGui@@YA_NPEBDPEAMMM0H@Z ; ImGui::SliderFloat

; 405  :             
; 406  :             ImGui::Checkbox("Debug", (bool *)&debug);

  014b1	48 8d 94 24 f8
	00 00 00	 lea	 rdx, QWORD PTR debug$[rsp]
  014b9	48 8d 0d 00 00
	00 00		 lea	 rcx, OFFSET FLAT:$SG84897
  014c0	e8 00 00 00 00	 call	 ?Checkbox@ImGui@@YA_NPEBDPEA_N@Z ; ImGui::Checkbox

; 407  :             ImGui::SliderFloat("Debug t", &debug_t, 0.0f, 1.0f);

  014c5	c7 44 24 28 00
	00 00 00	 mov	 DWORD PTR [rsp+40], 0
  014cd	48 8d 05 00 00
	00 00		 lea	 rax, OFFSET FLAT:$SG84898
  014d4	48 89 44 24 20	 mov	 QWORD PTR [rsp+32], rax
  014d9	f3 0f 10 1d 00
	00 00 00	 movss	 xmm3, DWORD PTR __real@3f800000
  014e1	0f 57 d2	 xorps	 xmm2, xmm2
  014e4	48 8d 94 24 fc
	00 00 00	 lea	 rdx, QWORD PTR debug_t$[rsp]
  014ec	48 8d 0d 00 00
	00 00		 lea	 rcx, OFFSET FLAT:$SG84899
  014f3	e8 00 00 00 00	 call	 ?SliderFloat@ImGui@@YA_NPEBDPEAMMM0H@Z ; ImGui::SliderFloat

; 408  :             
; 409  :             for (u32 i = 0; i < ARRAY_COUNT(c_type); i++) 

  014f8	c7 44 24 64 00
	00 00 00	 mov	 DWORD PTR i$8[rsp], 0
  01500	eb 0a		 jmp	 SHORT $LN21@main
$LN19@main:
  01502	8b 44 24 64	 mov	 eax, DWORD PTR i$8[rsp]
  01506	ff c0		 inc	 eax
  01508	89 44 24 64	 mov	 DWORD PTR i$8[rsp], eax
$LN21@main:
  0150c	8b 44 24 64	 mov	 eax, DWORD PTR i$8[rsp]
  01510	48 83 f8 03	 cmp	 rax, 3
  01514	73 43		 jae	 SHORT $LN20@main

; 410  :             {
; 411  :                 if (ImGui::RadioButton(c_type[i], c_selected == i))

  01516	8b 44 24 64	 mov	 eax, DWORD PTR i$8[rsp]
  0151a	39 84 24 88 00
	00 00		 cmp	 DWORD PTR c_selected$[rsp], eax
  01521	75 07		 jne	 SHORT $LN61@main
  01523	c6 44 24 46 01	 mov	 BYTE PTR tv880[rsp], 1
  01528	eb 05		 jmp	 SHORT $LN62@main
$LN61@main:
  0152a	c6 44 24 46 00	 mov	 BYTE PTR tv880[rsp], 0
$LN62@main:
  0152f	8b 44 24 64	 mov	 eax, DWORD PTR i$8[rsp]
  01533	0f b6 54 24 46	 movzx	 edx, BYTE PTR tv880[rsp]
  01538	48 8b 8c c4 c0
	3f 00 00	 mov	 rcx, QWORD PTR c_type$[rsp+rax*8]
  01540	e8 00 00 00 00	 call	 ?RadioButton@ImGui@@YA_NPEBD_N@Z ; ImGui::RadioButton
  01545	0f b6 c0	 movzx	 eax, al
  01548	85 c0		 test	 eax, eax
  0154a	74 0b		 je	 SHORT $LN44@main

; 412  :                     c_selected= i;

  0154c	8b 44 24 64	 mov	 eax, DWORD PTR i$8[rsp]
  01550	89 84 24 88 00
	00 00		 mov	 DWORD PTR c_selected$[rsp], eax
$LN44@main:

; 413  :             }

  01557	eb a9		 jmp	 SHORT $LN19@main
$LN20@main:

; 414  :             
; 415  :             ImGui::Spacing();

  01559	e8 00 00 00 00	 call	 ?Spacing@ImGui@@YAXXZ	; ImGui::Spacing

; 416  :             
; 417  :             for (u32 i = 0; i < ARRAY_COUNT(a_type); i++) 

  0155e	c7 44 24 68 00
	00 00 00	 mov	 DWORD PTR i$9[rsp], 0
  01566	eb 0a		 jmp	 SHORT $LN24@main
$LN22@main:
  01568	8b 44 24 68	 mov	 eax, DWORD PTR i$9[rsp]
  0156c	ff c0		 inc	 eax
  0156e	89 44 24 68	 mov	 DWORD PTR i$9[rsp], eax
$LN24@main:
  01572	8b 44 24 68	 mov	 eax, DWORD PTR i$9[rsp]
  01576	48 83 f8 02	 cmp	 rax, 2
  0157a	73 43		 jae	 SHORT $LN23@main

; 418  :             {
; 419  :                 if (ImGui::RadioButton(a_type[i], a_selected == i))

  0157c	8b 44 24 68	 mov	 eax, DWORD PTR i$9[rsp]
  01580	39 84 24 c4 00
	00 00		 cmp	 DWORD PTR a_selected$[rsp], eax
  01587	75 07		 jne	 SHORT $LN63@main
  01589	c6 44 24 47 01	 mov	 BYTE PTR tv893[rsp], 1
  0158e	eb 05		 jmp	 SHORT $LN64@main
$LN63@main:
  01590	c6 44 24 47 00	 mov	 BYTE PTR tv893[rsp], 0
$LN64@main:
  01595	8b 44 24 68	 mov	 eax, DWORD PTR i$9[rsp]
  01599	0f b6 54 24 47	 movzx	 edx, BYTE PTR tv893[rsp]
  0159e	48 8b 8c c4 08
	02 00 00	 mov	 rcx, QWORD PTR a_type$[rsp+rax*8]
  015a6	e8 00 00 00 00	 call	 ?RadioButton@ImGui@@YA_NPEBD_N@Z ; ImGui::RadioButton
  015ab	0f b6 c0	 movzx	 eax, al
  015ae	85 c0		 test	 eax, eax
  015b0	74 0b		 je	 SHORT $LN45@main

; 420  :                     a_selected= i;

  015b2	8b 44 24 68	 mov	 eax, DWORD PTR i$9[rsp]
  015b6	89 84 24 c4 00
	00 00		 mov	 DWORD PTR a_selected$[rsp], eax
$LN45@main:

; 421  :             }

  015bd	eb a9		 jmp	 SHORT $LN22@main
$LN23@main:

; 422  :             
; 423  :             char buffer[32];
; 424  :             v3 prev_p;
; 425  :             u32 p_count = get_stack_count(p);

  015bf	48 83 7c 24 50
	00		 cmp	 QWORD PTR p$[rsp], 0
  015c5	74 11		 je	 SHORT $LN65@main
  015c7	48 8b 44 24 50	 mov	 rax, QWORD PTR p$[rsp]
  015cc	8b 40 fc	 mov	 eax, DWORD PTR [rax-4]
  015cf	89 84 24 c8 00
	00 00		 mov	 DWORD PTR tv936[rsp], eax
  015d6	eb 0b		 jmp	 SHORT $LN66@main
$LN65@main:
  015d8	c7 84 24 c8 00
	00 00 00 00 00
	00		 mov	 DWORD PTR tv936[rsp], 0
$LN66@main:
  015e3	8b 84 24 c8 00
	00 00		 mov	 eax, DWORD PTR tv936[rsp]
  015ea	89 84 24 cc 00
	00 00		 mov	 DWORD PTR p_count$19[rsp], eax

; 426  :             u32 c_count = ceilf((p_count-1)/3.0f);

  015f1	8b 84 24 cc 00
	00 00		 mov	 eax, DWORD PTR p_count$19[rsp]
  015f8	ff c8		 dec	 eax
  015fa	8b c0		 mov	 eax, eax
  015fc	f3 48 0f 2a c0	 cvtsi2ss xmm0, rax
  01601	f3 0f 5e 05 00
	00 00 00	 divss	 xmm0, DWORD PTR __real@40400000
  01609	e8 00 00 00 00	 call	 ceilf
  0160e	f3 48 0f 2c c0	 cvttss2si rax, xmm0
  01613	89 84 24 00 01
	00 00		 mov	 DWORD PTR c_count$24[rsp], eax

; 427  :             for (u32 i = 0; i < p_count; i++) {

  0161a	c7 44 24 40 00
	00 00 00	 mov	 DWORD PTR i$1[rsp], 0
  01622	eb 0a		 jmp	 SHORT $LN27@main
$LN25@main:
  01624	8b 44 24 40	 mov	 eax, DWORD PTR i$1[rsp]
  01628	ff c0		 inc	 eax
  0162a	89 44 24 40	 mov	 DWORD PTR i$1[rsp], eax
$LN27@main:
  0162e	8b 84 24 cc 00
	00 00		 mov	 eax, DWORD PTR p_count$19[rsp]
  01635	39 44 24 40	 cmp	 DWORD PTR i$1[rsp], eax
  01639	0f 83 15 01 00
	00		 jae	 $LN26@main

; 428  :                 sprintf(buffer, "Pos %d", i);

  0163f	44 8b 44 24 40	 mov	 r8d, DWORD PTR i$1[rsp]
  01644	48 8d 15 00 00
	00 00		 lea	 rdx, OFFSET FLAT:$SG84902
  0164b	48 8d 8c 24 00
	41 00 00	 lea	 rcx, QWORD PTR buffer$87[rsp]
  01653	e8 00 00 00 00	 call	 sprintf

; 429  :                 
; 430  :                 prev_p = p[i];

  01658	8b 44 24 40	 mov	 eax, DWORD PTR i$1[rsp]
  0165c	48 6b c0 0c	 imul	 rax, rax, 12
  01660	48 8d 8c 24 10
	05 00 00	 lea	 rcx, QWORD PTR prev_p$73[rsp]
  01668	48 8b 54 24 50	 mov	 rdx, QWORD PTR p$[rsp]
  0166d	48 8b f9	 mov	 rdi, rcx
  01670	48 8d 34 02	 lea	 rsi, QWORD PTR [rdx+rax]
  01674	b9 0c 00 00 00	 mov	 ecx, 12
  01679	f3 a4		 rep movsb

; 431  :                 draw_vec3_widget(buffer, p+i);

  0167b	8b 44 24 40	 mov	 eax, DWORD PTR i$1[rsp]
  0167f	48 6b c0 0c	 imul	 rax, rax, 12
  01683	48 8b 4c 24 50	 mov	 rcx, QWORD PTR p$[rsp]
  01688	48 03 c8	 add	 rcx, rax
  0168b	48 8b c1	 mov	 rax, rcx
  0168e	48 8b d0	 mov	 rdx, rax
  01691	48 8d 8c 24 00
	41 00 00	 lea	 rcx, QWORD PTR buffer$87[rsp]
  01699	e8 00 00 00 00	 call	 ?draw_vec3_widget@@YAXPEBDPEATHMM_Vec3@@@Z ; draw_vec3_widget

; 432  :                 
; 433  :                 if (c_selected != 0 && i > 1 && i < c_count*3-1 && 

  0169e	83 bc 24 88 00
	00 00 00	 cmp	 DWORD PTR c_selected$[rsp], 0
  016a6	0f 84 a3 00 00
	00		 je	 $LN46@main
  016ac	83 7c 24 40 01	 cmp	 DWORD PTR i$1[rsp], 1
  016b1	0f 86 98 00 00
	00		 jbe	 $LN46@main
  016b7	6b 84 24 00 01
	00 00 03	 imul	 eax, DWORD PTR c_count$24[rsp], 3
  016bf	ff c8		 dec	 eax
  016c1	39 44 24 40	 cmp	 DWORD PTR i$1[rsp], eax
  016c5	0f 83 84 00 00
	00		 jae	 $LN46@main
  016cb	8b 44 24 40	 mov	 eax, DWORD PTR i$1[rsp]
  016cf	48 6b c0 0c	 imul	 rax, rax, 12
  016d3	48 8b 4c 24 50	 mov	 rcx, QWORD PTR p$[rsp]
  016d8	f3 0f 10 84 24
	10 05 00 00	 movss	 xmm0, DWORD PTR prev_p$73[rsp]
  016e1	0f 2e 04 01	 ucomiss xmm0, DWORD PTR [rcx+rax]
  016e5	7a 40		 jp	 SHORT $LN47@main
  016e7	75 3e		 jne	 SHORT $LN47@main
  016e9	8b 44 24 40	 mov	 eax, DWORD PTR i$1[rsp]
  016ed	48 6b c0 0c	 imul	 rax, rax, 12
  016f1	48 8b 4c 24 50	 mov	 rcx, QWORD PTR p$[rsp]
  016f6	f3 0f 10 84 24
	14 05 00 00	 movss	 xmm0, DWORD PTR prev_p$73[rsp+4]
  016ff	0f 2e 44 01 04	 ucomiss xmm0, DWORD PTR [rcx+rax+4]
  01704	7a 21		 jp	 SHORT $LN47@main
  01706	75 1f		 jne	 SHORT $LN47@main
  01708	8b 44 24 40	 mov	 eax, DWORD PTR i$1[rsp]
  0170c	48 6b c0 0c	 imul	 rax, rax, 12
  01710	48 8b 4c 24 50	 mov	 rcx, QWORD PTR p$[rsp]
  01715	f3 0f 10 84 24
	18 05 00 00	 movss	 xmm0, DWORD PTR prev_p$73[rsp+8]
  0171e	0f 2e 44 01 08	 ucomiss xmm0, DWORD PTR [rcx+rax+8]
  01723	7a 02		 jp	 SHORT $LN47@main
  01725	74 28		 je	 SHORT $LN46@main
$LN47@main:

; 434  :                     (prev_p.X != p[i].X || prev_p.Y != p[i].Y || prev_p.Z != p[i].Z)) 
; 435  :                 {
; 436  :                     if (c_selected == 1) {

  01727	83 bc 24 88 00
	00 00 01	 cmp	 DWORD PTR c_selected$[rsp], 1
  0172f	75 10		 jne	 SHORT $LN48@main

; 437  :                         adjust_bezier_c1(p, i);

  01731	8b 54 24 40	 mov	 edx, DWORD PTR i$1[rsp]
  01735	48 8b 4c 24 50	 mov	 rcx, QWORD PTR p$[rsp]
  0173a	e8 00 00 00 00	 call	 ?adjust_bezier_c1@@YAXPEATHMM_Vec3@@I@Z ; adjust_bezier_c1

; 438  :                     }

  0173f	eb 0e		 jmp	 SHORT $LN46@main
$LN48@main:

; 439  :                     else {
; 440  :                         adjust_bezier_g1(p, i);

  01741	8b 54 24 40	 mov	 edx, DWORD PTR i$1[rsp]
  01745	48 8b 4c 24 50	 mov	 rcx, QWORD PTR p$[rsp]
  0174a	e8 00 00 00 00	 call	 ?adjust_bezier_g1@@YAXPEATHMM_Vec3@@I@Z ; adjust_bezier_g1
$LN46@main:

; 441  :                     }
; 442  :                 }
; 443  :             }

  0174f	e9 d0 fe ff ff	 jmp	 $LN25@main
$LN26@main:

; 444  :             
; 445  :             ImGui::Spacing();

  01754	e8 00 00 00 00	 call	 ?Spacing@ImGui@@YAXXZ	; ImGui::Spacing

; 446  :             
; 447  :             if (ImGui::Button("Add Point")) {

  01759	0f 57 d2	 xorps	 xmm2, xmm2
  0175c	0f 57 c9	 xorps	 xmm1, xmm1
  0175f	48 8d 8c 24 f0
	02 00 00	 lea	 rcx, QWORD PTR $T56[rsp]
  01767	e8 00 00 00 00	 call	 ??0ImVec2@@QEAA@MM@Z	; ImVec2::ImVec2
  0176c	48 8b d0	 mov	 rdx, rax
  0176f	48 8d 0d 00 00
	00 00		 lea	 rcx, OFFSET FLAT:$SG84908
  01776	e8 00 00 00 00	 call	 ?Button@ImGui@@YA_NPEBDAEBUImVec2@@@Z ; ImGui::Button
  0177b	0f b6 c0	 movzx	 eax, al
  0177e	85 c0		 test	 eax, eax
  01780	0f 84 9f 00 00
	00		 je	 $LN43@main

; 448  :                 u32 prev_p_id = get_stack_count(p)-1;

  01786	48 83 7c 24 50
	00		 cmp	 QWORD PTR p$[rsp], 0
  0178c	74 11		 je	 SHORT $LN67@main
  0178e	48 8b 44 24 50	 mov	 rax, QWORD PTR p$[rsp]
  01793	8b 40 fc	 mov	 eax, DWORD PTR [rax-4]
  01796	89 84 24 d0 00
	00 00		 mov	 DWORD PTR tv1026[rsp], eax
  0179d	eb 0b		 jmp	 SHORT $LN68@main
$LN67@main:
  0179f	c7 84 24 d0 00
	00 00 00 00 00
	00		 mov	 DWORD PTR tv1026[rsp], 0
$LN68@main:
  017aa	8b 84 24 d0 00
	00 00		 mov	 eax, DWORD PTR tv1026[rsp]
  017b1	ff c8		 dec	 eax
  017b3	89 84 24 a8 00
	00 00		 mov	 DWORD PTR prev_p_id$18[rsp], eax

; 449  :                 v3 *np = (v3 *)stack_push(&p);

  017ba	41 b8 0c 00 00
	00		 mov	 r8d, 12
  017c0	ba 01 00 00 00	 mov	 edx, 1
  017c5	48 8d 4c 24 50	 lea	 rcx, QWORD PTR p$[rsp]
  017ca	e8 00 00 00 00	 call	 ?_stack_push@@YAPEAXPEAPEAXII@Z ; _stack_push
  017cf	48 89 84 24 80
	01 00 00	 mov	 QWORD PTR np$31[rsp], rax

; 450  :                 *np = p[prev_p_id];

  017d7	8b 84 24 a8 00
	00 00		 mov	 eax, DWORD PTR prev_p_id$18[rsp]
  017de	48 6b c0 0c	 imul	 rax, rax, 12
  017e2	48 8b 4c 24 50	 mov	 rcx, QWORD PTR p$[rsp]
  017e7	48 8b bc 24 80
	01 00 00	 mov	 rdi, QWORD PTR np$31[rsp]
  017ef	48 8d 34 01	 lea	 rsi, QWORD PTR [rcx+rax]
  017f3	b9 0c 00 00 00	 mov	 ecx, 12
  017f8	f3 a4		 rep movsb

; 451  :                 
; 452  :                 if (prev_p_id % 3 == 0) {

  017fa	33 d2		 xor	 edx, edx
  017fc	8b 84 24 a8 00
	00 00		 mov	 eax, DWORD PTR prev_p_id$18[rsp]
  01803	b9 03 00 00 00	 mov	 ecx, 3
  01808	f7 f1		 div	 ecx
  0180a	8b c2		 mov	 eax, edx
  0180c	85 c0		 test	 eax, eax
  0180e	75 15		 jne	 SHORT $LN43@main

; 453  :                     adjust_bezier_c1(p, prev_p_id-1);

  01810	8b 84 24 a8 00
	00 00		 mov	 eax, DWORD PTR prev_p_id$18[rsp]
  01817	ff c8		 dec	 eax
  01819	8b d0		 mov	 edx, eax
  0181b	48 8b 4c 24 50	 mov	 rcx, QWORD PTR p$[rsp]
  01820	e8 00 00 00 00	 call	 ?adjust_bezier_c1@@YAXPEATHMM_Vec3@@I@Z ; adjust_bezier_c1
$LN43@main:

; 454  :                 }
; 455  :                 
; 456  :             }
; 457  :         }
; 458  :         
; 459  :         mat4 *transform = gl.transforms+entity->m_info.trans_id;

  01825	48 8b 84 24 a0
	00 00 00	 mov	 rax, QWORD PTR entity$17[rsp]
  0182d	8b 40 0c	 mov	 eax, DWORD PTR [rax+12]
  01830	48 6b c0 40	 imul	 rax, rax, 64		; 00000040H
  01834	48 8b 8c 24 20
	04 00 00	 mov	 rcx, QWORD PTR gl$[rsp+48]
  0183c	48 03 c8	 add	 rcx, rax
  0183f	48 8b c1	 mov	 rax, rcx
  01842	48 89 84 24 88
	01 00 00	 mov	 QWORD PTR transform$32[rsp], rax

; 460  :         update_transform(&gl, transform, entity->pos, entity->rot, entity->scale);

  0184a	48 8d 84 24 30
	02 00 00	 lea	 rax, QWORD PTR $T41[rsp]
  01852	48 8b 8c 24 a0
	00 00 00	 mov	 rcx, QWORD PTR entity$17[rsp]
  0185a	48 8b f8	 mov	 rdi, rax
  0185d	48 8d 71 28	 lea	 rsi, QWORD PTR [rcx+40]
  01861	b9 0c 00 00 00	 mov	 ecx, 12
  01866	f3 a4		 rep movsb
  01868	48 8d 84 24 70
	02 00 00	 lea	 rax, QWORD PTR $T45[rsp]
  01870	48 8b 8c 24 a0
	00 00 00	 mov	 rcx, QWORD PTR entity$17[rsp]
  01878	48 8b f8	 mov	 rdi, rax
  0187b	48 8d 71 1c	 lea	 rsi, QWORD PTR [rcx+28]
  0187f	b9 0c 00 00 00	 mov	 ecx, 12
  01884	f3 a4		 rep movsb
  01886	48 8d 84 24 80
	02 00 00	 lea	 rax, QWORD PTR $T46[rsp]
  0188e	48 8b 8c 24 a0
	00 00 00	 mov	 rcx, QWORD PTR entity$17[rsp]
  01896	48 8b f8	 mov	 rdi, rax
  01899	48 8d 71 10	 lea	 rsi, QWORD PTR [rcx+16]
  0189d	b9 0c 00 00 00	 mov	 ecx, 12
  018a2	f3 a4		 rep movsb
  018a4	48 8d 84 24 30
	02 00 00	 lea	 rax, QWORD PTR $T41[rsp]
  018ac	48 89 44 24 20	 mov	 QWORD PTR [rsp+32], rax
  018b1	4c 8d 8c 24 70
	02 00 00	 lea	 r9, QWORD PTR $T45[rsp]
  018b9	4c 8d 84 24 80
	02 00 00	 lea	 r8, QWORD PTR $T46[rsp]
  018c1	48 8b 94 24 88
	01 00 00	 mov	 rdx, QWORD PTR transform$32[rsp]
  018c9	48 8d 8c 24 f0
	03 00 00	 lea	 rcx, QWORD PTR gl$[rsp]
  018d1	e8 00 00 00 00	 call	 ?update_transform@@YAXPEAUgl_renderer@@PEATHMM_Mat4@@THMM_Vec3@@22@Z ; update_transform

; 461  :         
; 462  :         ImGui::End();

  018d6	e8 00 00 00 00	 call	 ?End@ImGui@@YAXXZ	; ImGui::End

; 463  :         
; 464  :         update_camera(&camera);

  018db	48 8d 8c 24 d0
	05 00 00	 lea	 rcx, QWORD PTR camera$[rsp]
  018e3	e8 00 00 00 00	 call	 ?update_camera@@YAXPEAUcamera_t@@@Z ; update_camera

; 465  :         
; 466  :         //render_framebuffer(&gl);
; 467  :         
; 468  :         ImGui::Render();

  018e8	e8 00 00 00 00	 call	 ?Render@ImGui@@YAXXZ	; ImGui::Render

; 469  :         i32 w, h;
; 470  :         glfwGetFramebufferSize(window, &w, &h);

  018ed	4c 8d 84 24 04
	01 00 00	 lea	 r8, QWORD PTR h$25[rsp]
  018f5	48 8d 94 24 08
	01 00 00	 lea	 rdx, QWORD PTR w$26[rsp]
  018fd	48 8b 8c 24 98
	00 00 00	 mov	 rcx, QWORD PTR window$[rsp]
  01905	e8 00 00 00 00	 call	 glfwGetFramebufferSize

; 471  :         glViewport(0, 0, w, h);

  0190a	44 8b 8c 24 04
	01 00 00	 mov	 r9d, DWORD PTR h$25[rsp]
  01912	44 8b 84 24 08
	01 00 00	 mov	 r8d, DWORD PTR w$26[rsp]
  0191a	33 d2		 xor	 edx, edx
  0191c	33 c9		 xor	 ecx, ecx
  0191e	ff 15 00 00 00
	00		 call	 QWORD PTR __imp_glViewport

; 472  :         glClearColor(0.0f, 0.0f, 0.0f, 1.0f);

  01924	f3 0f 10 1d 00
	00 00 00	 movss	 xmm3, DWORD PTR __real@3f800000
  0192c	0f 57 d2	 xorps	 xmm2, xmm2
  0192f	0f 57 c9	 xorps	 xmm1, xmm1
  01932	0f 57 c0	 xorps	 xmm0, xmm0
  01935	ff 15 00 00 00
	00		 call	 QWORD PTR __imp_glClearColor

; 473  :         glClear(GL_COLOR_BUFFER_BIT);

  0193b	b9 00 40 00 00	 mov	 ecx, 16384		; 00004000H
  01940	ff 15 00 00 00
	00		 call	 QWORD PTR __imp_glClear

; 474  :         ImGui_ImplOpenGL3_RenderDrawData(ImGui::GetDrawData());

  01946	e8 00 00 00 00	 call	 ?GetDrawData@ImGui@@YAPEAUImDrawData@@XZ ; ImGui::GetDrawData
  0194b	48 8b c8	 mov	 rcx, rax
  0194e	e8 00 00 00 00	 call	 ?ImGui_ImplOpenGL3_RenderDrawData@@YAXPEAUImDrawData@@@Z ; ImGui_ImplOpenGL3_RenderDrawData

; 475  :         ImGuiIO io = ImGui::GetIO();

  01953	e8 00 00 00 00	 call	 ?GetIO@ImGui@@YAAEAUImGuiIO@@XZ ; ImGui::GetIO
  01958	48 8b d0	 mov	 rdx, rax
  0195b	48 8d 8c 24 70
	06 00 00	 lea	 rcx, QWORD PTR io$85[rsp]
  01963	e8 00 00 00 00	 call	 ??0ImGuiIO@@QEAA@AEBU0@@Z
  01968	90		 npad	 1

; 476  :         
; 477  :         if (io.ConfigFlags & ImGuiConfigFlags_ViewportsEnable) {

  01969	8b 84 24 70 06
	00 00		 mov	 eax, DWORD PTR io$85[rsp]
  01970	25 00 04 00 00	 and	 eax, 1024		; 00000400H
  01975	85 c0		 test	 eax, eax
  01977	74 28		 je	 SHORT $LN52@main

; 478  :             GLFWwindow *backup = glfwGetCurrentContext();

  01979	e8 00 00 00 00	 call	 glfwGetCurrentContext
  0197e	48 89 84 24 90
	01 00 00	 mov	 QWORD PTR backup$33[rsp], rax

; 479  :             ImGui::UpdatePlatformWindows();

  01986	e8 00 00 00 00	 call	 ?UpdatePlatformWindows@ImGui@@YAXXZ ; ImGui::UpdatePlatformWindows

; 480  :             ImGui::RenderPlatformWindowsDefault();

  0198b	33 d2		 xor	 edx, edx
  0198d	33 c9		 xor	 ecx, ecx
  0198f	e8 00 00 00 00	 call	 ?RenderPlatformWindowsDefault@ImGui@@YAXPEAX0@Z ; ImGui::RenderPlatformWindowsDefault

; 481  :             glfwMakeContextCurrent(backup);

  01994	48 8b 8c 24 90
	01 00 00	 mov	 rcx, QWORD PTR backup$33[rsp]
  0199c	e8 00 00 00 00	 call	 glfwMakeContextCurrent
$LN52@main:

; 482  :         }
; 483  :         
; 484  :         glfwSwapBuffers(window);

  019a1	48 8b 8c 24 98
	00 00 00	 mov	 rcx, QWORD PTR window$[rsp]
  019a9	e8 00 00 00 00	 call	 glfwSwapBuffers

; 485  :         glfwPollEvents();

  019ae	e8 00 00 00 00	 call	 glfwPollEvents

; 486  :         
; 487  :         stack_clear(gl.cmds);

  019b3	48 83 bc 24 18
	04 00 00 00	 cmp	 QWORD PTR gl$[rsp+40], 0
  019bc	74 1c		 je	 SHORT $LN69@main
  019be	48 8b 84 24 18
	04 00 00	 mov	 rax, QWORD PTR gl$[rsp+40]
  019c6	c7 40 fc 00 00
	00 00		 mov	 DWORD PTR [rax-4], 0
  019cd	c7 84 24 0c 01
	00 00 00 00 00
	00		 mov	 DWORD PTR tv1084[rsp], 0
  019d8	eb 0b		 jmp	 SHORT $LN70@main
$LN69@main:
  019da	c7 84 24 0c 01
	00 00 00 00 00
	00		 mov	 DWORD PTR tv1084[rsp], 0
$LN70@main:

; 488  :         stack_clear(gl.verts);

  019e5	48 83 bc 24 f0
	03 00 00 00	 cmp	 QWORD PTR gl$[rsp], 0
  019ee	74 1c		 je	 SHORT $LN71@main
  019f0	48 8b 84 24 f0
	03 00 00	 mov	 rax, QWORD PTR gl$[rsp]
  019f8	c7 40 fc 00 00
	00 00		 mov	 DWORD PTR [rax-4], 0
  019ff	c7 84 24 2c 01
	00 00 00 00 00
	00		 mov	 DWORD PTR tv1088[rsp], 0
  01a0a	eb 0b		 jmp	 SHORT $LN72@main
$LN71@main:
  01a0c	c7 84 24 2c 01
	00 00 00 00 00
	00		 mov	 DWORD PTR tv1088[rsp], 0
$LN72@main:

; 489  :         stack_clear(gl.uvs);

  01a17	48 83 bc 24 f8
	03 00 00 00	 cmp	 QWORD PTR gl$[rsp+8], 0
  01a20	74 1c		 je	 SHORT $LN73@main
  01a22	48 8b 84 24 f8
	03 00 00	 mov	 rax, QWORD PTR gl$[rsp+8]
  01a2a	c7 40 fc 00 00
	00 00		 mov	 DWORD PTR [rax-4], 0
  01a31	c7 84 24 14 01
	00 00 00 00 00
	00		 mov	 DWORD PTR tv1092[rsp], 0
  01a3c	eb 0b		 jmp	 SHORT $LN74@main
$LN73@main:
  01a3e	c7 84 24 14 01
	00 00 00 00 00
	00		 mov	 DWORD PTR tv1092[rsp], 0
$LN74@main:

; 490  :         stack_clear(gl.colors);

  01a49	48 83 bc 24 00
	04 00 00 00	 cmp	 QWORD PTR gl$[rsp+16], 0
  01a52	74 1c		 je	 SHORT $LN75@main
  01a54	48 8b 84 24 00
	04 00 00	 mov	 rax, QWORD PTR gl$[rsp+16]
  01a5c	c7 40 fc 00 00
	00 00		 mov	 DWORD PTR [rax-4], 0
  01a63	c7 84 24 18 01
	00 00 00 00 00
	00		 mov	 DWORD PTR tv1096[rsp], 0
  01a6e	eb 0b		 jmp	 SHORT $LN76@main
$LN75@main:
  01a70	c7 84 24 18 01
	00 00 00 00 00
	00		 mov	 DWORD PTR tv1096[rsp], 0
$LN76@main:

; 491  :         stack_clear(gl.norms);

  01a7b	48 83 bc 24 08
	04 00 00 00	 cmp	 QWORD PTR gl$[rsp+24], 0
  01a84	74 1c		 je	 SHORT $LN77@main
  01a86	48 8b 84 24 08
	04 00 00	 mov	 rax, QWORD PTR gl$[rsp+24]
  01a8e	c7 40 fc 00 00
	00 00		 mov	 DWORD PTR [rax-4], 0
  01a95	c7 84 24 1c 01
	00 00 00 00 00
	00		 mov	 DWORD PTR tv1100[rsp], 0
  01aa0	eb 0b		 jmp	 SHORT $LN78@main
$LN77@main:
  01aa2	c7 84 24 1c 01
	00 00 00 00 00
	00		 mov	 DWORD PTR tv1100[rsp], 0
$LN78@main:

; 492  :         stack_clear(gl.indices);

  01aad	48 83 bc 24 10
	04 00 00 00	 cmp	 QWORD PTR gl$[rsp+32], 0
  01ab6	74 1c		 je	 SHORT $LN79@main
  01ab8	48 8b 84 24 10
	04 00 00	 mov	 rax, QWORD PTR gl$[rsp+32]
  01ac0	c7 40 fc 00 00
	00 00		 mov	 DWORD PTR [rax-4], 0
  01ac7	c7 84 24 20 01
	00 00 00 00 00
	00		 mov	 DWORD PTR tv1104[rsp], 0
  01ad2	eb 0b		 jmp	 SHORT $LN80@main
$LN79@main:
  01ad4	c7 84 24 20 01
	00 00 00 00 00
	00		 mov	 DWORD PTR tv1104[rsp], 0
$LN80@main:

; 493  :         
; 494  :         f64 current_time = glfwGetTime();

  01adf	e8 00 00 00 00	 call	 glfwGetTime
  01ae4	f2 0f 11 84 24
	50 01 00 00	 movsd	 QWORD PTR current_time$30[rsp], xmm0

; 495  :         f64 delta = current_time - last_time;

  01aed	f2 0f 10 84 24
	50 01 00 00	 movsd	 xmm0, QWORD PTR current_time$30[rsp]
  01af6	f2 0f 5c 84 24
	58 01 00 00	 subsd	 xmm0, QWORD PTR last_time$[rsp]
  01aff	f2 0f 11 84 24
	48 01 00 00	 movsd	 QWORD PTR delta$29[rsp], xmm0

; 496  :         frame_count++;

  01b08	8b 84 24 8c 00
	00 00		 mov	 eax, DWORD PTR frame_count$[rsp]
  01b0f	ff c0		 inc	 eax
  01b11	89 84 24 8c 00
	00 00		 mov	 DWORD PTR frame_count$[rsp], eax

; 497  :         
; 498  :         if (delta >= 1.0) {

  01b18	f2 0f 10 84 24
	48 01 00 00	 movsd	 xmm0, QWORD PTR delta$29[rsp]
  01b21	66 0f 2f 05 00
	00 00 00	 comisd	 xmm0, QWORD PTR __real@3ff0000000000000
  01b29	0f 82 81 00 00
	00		 jb	 $LN53@main

; 499  :             f64 fps = frame_count/delta;

  01b2f	8b 84 24 8c 00
	00 00		 mov	 eax, DWORD PTR frame_count$[rsp]
  01b36	f2 48 0f 2a c0	 cvtsi2sd xmm0, rax
  01b3b	f2 0f 5e 84 24
	48 01 00 00	 divsd	 xmm0, QWORD PTR delta$29[rsp]
  01b44	f2 0f 11 84 24
	98 01 00 00	 movsd	 QWORD PTR fps$34[rsp], xmm0
$LN30@main:

; 500  :             
; 501  :             LOG("FPS: %f", fps);

  01b4d	b9 02 00 00 00	 mov	 ecx, 2
  01b52	e8 00 00 00 00	 call	 __acrt_iob_func
  01b57	f2 0f 10 94 24
	98 01 00 00	 movsd	 xmm2, QWORD PTR fps$34[rsp]
  01b60	66 49 0f 7e d0	 movq	 r8, xmm2
  01b65	48 8d 15 00 00
	00 00		 lea	 rdx, OFFSET FLAT:$SG84912
  01b6c	48 8b c8	 mov	 rcx, rax
  01b6f	e8 00 00 00 00	 call	 fprintf
  01b74	b9 02 00 00 00	 mov	 ecx, 2
  01b79	e8 00 00 00 00	 call	 __acrt_iob_func
  01b7e	48 8d 15 00 00
	00 00		 lea	 rdx, OFFSET FLAT:$SG84913
  01b85	48 8b c8	 mov	 rcx, rax
  01b88	e8 00 00 00 00	 call	 fprintf
  01b8d	33 c0		 xor	 eax, eax
  01b8f	85 c0		 test	 eax, eax
  01b91	75 ba		 jne	 SHORT $LN30@main

; 502  :             
; 503  :             frame_count = 0;

  01b93	c7 84 24 8c 00
	00 00 00 00 00
	00		 mov	 DWORD PTR frame_count$[rsp], 0

; 504  :             last_time = current_time;

  01b9e	f2 0f 10 84 24
	50 01 00 00	 movsd	 xmm0, QWORD PTR current_time$30[rsp]
  01ba7	f2 0f 11 84 24
	58 01 00 00	 movsd	 QWORD PTR last_time$[rsp], xmm0
$LN53@main:

; 505  :             
; 506  :         }
; 507  :     }

  01bb0	48 8d 8c 24 70
	06 00 00	 lea	 rcx, QWORD PTR io$85[rsp]
  01bb8	e8 00 00 00 00	 call	 ??1ImGuiIO@@QEAA@XZ
  01bbd	e9 15 f0 ff ff	 jmp	 $LN8@main
$LN9@main:

; 508  :     
; 509  : }

  01bc2	eb 02		 jmp	 SHORT $LN83@main
  01bc4	eb 02		 jmp	 SHORT $LN82@main
$LN83@main:
  01bc6	33 c0		 xor	 eax, eax
$LN82@main:
  01bc8	48 8b 8c 24 20
	41 00 00	 mov	 rcx, QWORD PTR __$ArrayPad$[rsp]
  01bd0	48 33 cc	 xor	 rcx, rsp
  01bd3	e8 00 00 00 00	 call	 __security_check_cookie
  01bd8	48 81 c4 38 41
	00 00		 add	 rsp, 16696		; 00004138H
  01bdf	5f		 pop	 rdi
  01be0	5e		 pop	 rsi
  01be1	c3		 ret	 0
main	ENDP
_TEXT	ENDS
text$x	SEGMENT
i$1 = 64
is_selected$2 = 68
is_selected$3 = 69
tv880 = 70
tv893 = 71
i$4 = 72
model_combo_idx$ = 76
p$ = 80
i$5 = 88
n$6 = 92
n$7 = 96
i$8 = 100
i$9 = 104
i$10 = 108
$T11 = 112
$T12 = 116
$T13 = 120
$T14 = 124
shader_combo_idx$ = 128
temp$15 = 132
c_selected$ = 136
frame_count$ = 140
$T16 = 144
window$ = 152
entity$17 = 160
prev_p_id$18 = 168
io$ = 176
shader$ = 184
tv732 = 188
tv804 = 192
a_selected$ = 196
tv936 = 200
p_count$19 = 204
tv1026 = 208
size$20 = 216
z_prime_id$ = 224
window_flags$21 = 228
dock_space_id$22 = 232
tv575 = 236
light_count$23 = 240
t$ = 244
debug$ = 248
debug_t$ = 252
c_count$24 = 256
h$25 = 260
w$26 = 264
tv1084 = 268
no_shade_id$ = 272
tv1092 = 276
tv1096 = 280
tv1100 = 284
tv1104 = 288
gouraud_id$ = 292
phong_id$ = 296
tv1088 = 300
flat_id$ = 304
z_id$ = 308
viewport$27 = 312
rp$28 = 320
delta$29 = 328
current_time$30 = 336
last_time$ = 344
tv623 = 352
tv630 = 360
tv637 = 368
tv642 = 376
np$31 = 384
transform$32 = 392
backup$33 = 400
fps$34 = 408
assets$ = 416
$T35 = 440
$T36 = 456
$T37 = 472
$T38 = 488
$T39 = 504
a_type$ = 520
$T40 = 536
$T41 = 560
$T42 = 576
$T43 = 592
$T44 = 608
$T45 = 624
$T46 = 640
$T47 = 656
$T48 = 672
$T49 = 688
$T50 = 704
$T51 = 712
$T52 = 720
$T53 = 728
$T54 = 736
$T55 = 744
$T56 = 752
$T57 = 760
$T58 = 768
$T59 = 784
$T60 = 800
$T61 = 808
$T62 = 824
$T63 = 840
$T64 = 856
$T65 = 872
$T66 = 888
$T67 = 904
$T68 = 920
$T69 = 936
$T70 = 952
$T71 = 968
$T72 = 984
gl$ = 1008
prev_p$73 = 1296
tempf$74 = 1312
$T75 = 1328
$T76 = 1344
$T77 = 1360
$T78 = 1376
$T79 = 1392
$T80 = 1408
$T81 = 1424
$T82 = 1440
$T83 = 1456
$T84 = 1472
camera$ = 1488
io$85 = 1648
colors$ = 16272
combo_models$ = 16288
c_type$ = 16320
paths$ = 16344
color$ = 16384
shader_combo_items$ = 16448
models$ = 16544
buffer$86 = 16608
buffer$87 = 16640
__$ArrayPad$ = 16672
main$dtor$0 PROC
  00000	40 55		 push	 rbp
  00002	48 83 ec 20	 sub	 rsp, 32			; 00000020H
  00006	48 8b ea	 mov	 rbp, rdx
  00009	48 8d 8d 70 06
	00 00		 lea	 rcx, QWORD PTR io$85[rbp]
  00010	e8 00 00 00 00	 call	 ??1ImGuiIO@@QEAA@XZ
  00015	48 83 c4 20	 add	 rsp, 32			; 00000020H
  00019	5d		 pop	 rbp
  0001a	c3		 ret	 0
main$dtor$0 ENDP
text$x	ENDS
; Function compile flags: /Odtp
text$x	SEGMENT
i$1 = 64
is_selected$2 = 68
is_selected$3 = 69
tv880 = 70
tv893 = 71
i$4 = 72
model_combo_idx$ = 76
p$ = 80
i$5 = 88
n$6 = 92
n$7 = 96
i$8 = 100
i$9 = 104
i$10 = 108
$T11 = 112
$T12 = 116
$T13 = 120
$T14 = 124
shader_combo_idx$ = 128
temp$15 = 132
c_selected$ = 136
frame_count$ = 140
$T16 = 144
window$ = 152
entity$17 = 160
prev_p_id$18 = 168
io$ = 176
shader$ = 184
tv732 = 188
tv804 = 192
a_selected$ = 196
tv936 = 200
p_count$19 = 204
tv1026 = 208
size$20 = 216
z_prime_id$ = 224
window_flags$21 = 228
dock_space_id$22 = 232
tv575 = 236
light_count$23 = 240
t$ = 244
debug$ = 248
debug_t$ = 252
c_count$24 = 256
h$25 = 260
w$26 = 264
tv1084 = 268
no_shade_id$ = 272
tv1092 = 276
tv1096 = 280
tv1100 = 284
tv1104 = 288
gouraud_id$ = 292
phong_id$ = 296
tv1088 = 300
flat_id$ = 304
z_id$ = 308
viewport$27 = 312
rp$28 = 320
delta$29 = 328
current_time$30 = 336
last_time$ = 344
tv623 = 352
tv630 = 360
tv637 = 368
tv642 = 376
np$31 = 384
transform$32 = 392
backup$33 = 400
fps$34 = 408
assets$ = 416
$T35 = 440
$T36 = 456
$T37 = 472
$T38 = 488
$T39 = 504
a_type$ = 520
$T40 = 536
$T41 = 560
$T42 = 576
$T43 = 592
$T44 = 608
$T45 = 624
$T46 = 640
$T47 = 656
$T48 = 672
$T49 = 688
$T50 = 704
$T51 = 712
$T52 = 720
$T53 = 728
$T54 = 736
$T55 = 744
$T56 = 752
$T57 = 760
$T58 = 768
$T59 = 784
$T60 = 800
$T61 = 808
$T62 = 824
$T63 = 840
$T64 = 856
$T65 = 872
$T66 = 888
$T67 = 904
$T68 = 920
$T69 = 936
$T70 = 952
$T71 = 968
$T72 = 984
gl$ = 1008
prev_p$73 = 1296
tempf$74 = 1312
$T75 = 1328
$T76 = 1344
$T77 = 1360
$T78 = 1376
$T79 = 1392
$T80 = 1408
$T81 = 1424
$T82 = 1440
$T83 = 1456
$T84 = 1472
camera$ = 1488
io$85 = 1648
colors$ = 16272
combo_models$ = 16288
c_type$ = 16320
paths$ = 16344
color$ = 16384
shader_combo_items$ = 16448
models$ = 16544
buffer$86 = 16608
buffer$87 = 16640
__$ArrayPad$ = 16672
main$dtor$0 PROC
  00000	40 55		 push	 rbp
  00002	48 83 ec 20	 sub	 rsp, 32			; 00000020H
  00006	48 8b ea	 mov	 rbp, rdx
  00009	48 8d 8d 70 06
	00 00		 lea	 rcx, QWORD PTR io$85[rbp]
  00010	e8 00 00 00 00	 call	 ??1ImGuiIO@@QEAA@XZ
  00015	48 83 c4 20	 add	 rsp, 32			; 00000020H
  00019	5d		 pop	 rbp
  0001a	c3		 ret	 0
main$dtor$0 ENDP
text$x	ENDS
; Function compile flags: /Odtp
; File W:\OpenGL_Viewer\src\main.cpp
_TEXT	SEGMENT
mov_speed$ = 32
rot_speed$ = 36
update$ = 40
entity$ = 48
window$ = 80
gl$ = 88
select$ = 96
?process_input@@YAXPEAUGLFWwindow@@PEAUgl_renderer@@I@Z PROC ; process_input

; 69   : {

$LN26:
  00000	44 89 44 24 18	 mov	 DWORD PTR [rsp+24], r8d
  00005	48 89 54 24 10	 mov	 QWORD PTR [rsp+16], rdx
  0000a	48 89 4c 24 08	 mov	 QWORD PTR [rsp+8], rcx
  0000f	48 83 ec 48	 sub	 rsp, 72			; 00000048H

; 70   :     if(glfwGetKey(window, GLFW_KEY_ESCAPE) == GLFW_PRESS)

  00013	ba 00 01 00 00	 mov	 edx, 256		; 00000100H
  00018	48 8b 4c 24 50	 mov	 rcx, QWORD PTR window$[rsp]
  0001d	e8 00 00 00 00	 call	 glfwGetKey
  00022	83 f8 01	 cmp	 eax, 1
  00025	75 0f		 jne	 SHORT $LN2@process_in

; 71   :         glfwSetWindowShouldClose(window, true);

  00027	ba 01 00 00 00	 mov	 edx, 1
  0002c	48 8b 4c 24 50	 mov	 rcx, QWORD PTR window$[rsp]
  00031	e8 00 00 00 00	 call	 glfwSetWindowShouldClose
$LN2@process_in:

; 72   :     
; 73   :     u32 update = 0;

  00036	c7 44 24 28 00
	00 00 00	 mov	 DWORD PTR update$[rsp], 0

; 74   :     f32 mov_speed = 0.01f;

  0003e	f3 0f 10 05 00
	00 00 00	 movss	 xmm0, DWORD PTR __real@3c23d70a
  00046	f3 0f 11 44 24
	20		 movss	 DWORD PTR mov_speed$[rsp], xmm0

; 75   :     f32 rot_speed = 0.5f;

  0004c	f3 0f 10 05 00
	00 00 00	 movss	 xmm0, DWORD PTR __real@3f000000
  00054	f3 0f 11 44 24
	24		 movss	 DWORD PTR rot_speed$[rsp], xmm0

; 76   :     
; 77   :     
; 78   :     entity_t *entity = gl->entities+select;

  0005a	8b 44 24 60	 mov	 eax, DWORD PTR select$[rsp]
  0005e	48 6b c0 38	 imul	 rax, rax, 56		; 00000038H
  00062	48 8b 4c 24 58	 mov	 rcx, QWORD PTR gl$[rsp]
  00067	48 03 41 38	 add	 rax, QWORD PTR [rcx+56]
  0006b	48 89 44 24 30	 mov	 QWORD PTR entity$[rsp], rax

; 79   :     if(glfwGetKey(window, GLFW_KEY_UP) == GLFW_PRESS)

  00070	ba 09 01 00 00	 mov	 edx, 265		; 00000109H
  00075	48 8b 4c 24 50	 mov	 rcx, QWORD PTR window$[rsp]
  0007a	e8 00 00 00 00	 call	 glfwGetKey
  0007f	83 f8 01	 cmp	 eax, 1
  00082	75 1a		 jne	 SHORT $LN3@process_in

; 80   :         entity->rot.X += rot_speed;

  00084	48 8b 44 24 30	 mov	 rax, QWORD PTR entity$[rsp]
  00089	f3 0f 10 40 1c	 movss	 xmm0, DWORD PTR [rax+28]
  0008e	f3 0f 58 44 24
	24		 addss	 xmm0, DWORD PTR rot_speed$[rsp]
  00094	48 8b 44 24 30	 mov	 rax, QWORD PTR entity$[rsp]
  00099	f3 0f 11 40 1c	 movss	 DWORD PTR [rax+28], xmm0
$LN3@process_in:

; 81   :     if(glfwGetKey(window, GLFW_KEY_DOWN) == GLFW_PRESS)

  0009e	ba 08 01 00 00	 mov	 edx, 264		; 00000108H
  000a3	48 8b 4c 24 50	 mov	 rcx, QWORD PTR window$[rsp]
  000a8	e8 00 00 00 00	 call	 glfwGetKey
  000ad	83 f8 01	 cmp	 eax, 1
  000b0	75 1a		 jne	 SHORT $LN4@process_in

; 82   :         entity->rot.X -= rot_speed;

  000b2	48 8b 44 24 30	 mov	 rax, QWORD PTR entity$[rsp]
  000b7	f3 0f 10 40 1c	 movss	 xmm0, DWORD PTR [rax+28]
  000bc	f3 0f 5c 44 24
	24		 subss	 xmm0, DWORD PTR rot_speed$[rsp]
  000c2	48 8b 44 24 30	 mov	 rax, QWORD PTR entity$[rsp]
  000c7	f3 0f 11 40 1c	 movss	 DWORD PTR [rax+28], xmm0
$LN4@process_in:

; 83   :     if(glfwGetKey(window, GLFW_KEY_LEFT) == GLFW_PRESS) {

  000cc	ba 07 01 00 00	 mov	 edx, 263		; 00000107H
  000d1	48 8b 4c 24 50	 mov	 rcx, QWORD PTR window$[rsp]
  000d6	e8 00 00 00 00	 call	 glfwGetKey
  000db	83 f8 01	 cmp	 eax, 1
  000de	75 4a		 jne	 SHORT $LN5@process_in

; 84   :         if(glfwGetKey(window, GLFW_KEY_LEFT_ALT) == GLFW_PRESS)

  000e0	ba 56 01 00 00	 mov	 edx, 342		; 00000156H
  000e5	48 8b 4c 24 50	 mov	 rcx, QWORD PTR window$[rsp]
  000ea	e8 00 00 00 00	 call	 glfwGetKey
  000ef	83 f8 01	 cmp	 eax, 1
  000f2	75 1c		 jne	 SHORT $LN6@process_in

; 85   :             entity->rot.Z += rot_speed;

  000f4	48 8b 44 24 30	 mov	 rax, QWORD PTR entity$[rsp]
  000f9	f3 0f 10 40 24	 movss	 xmm0, DWORD PTR [rax+36]
  000fe	f3 0f 58 44 24
	24		 addss	 xmm0, DWORD PTR rot_speed$[rsp]
  00104	48 8b 44 24 30	 mov	 rax, QWORD PTR entity$[rsp]
  00109	f3 0f 11 40 24	 movss	 DWORD PTR [rax+36], xmm0
  0010e	eb 1a		 jmp	 SHORT $LN7@process_in
$LN6@process_in:

; 86   :         else
; 87   :             entity->rot.Y += rot_speed;

  00110	48 8b 44 24 30	 mov	 rax, QWORD PTR entity$[rsp]
  00115	f3 0f 10 40 20	 movss	 xmm0, DWORD PTR [rax+32]
  0011a	f3 0f 58 44 24
	24		 addss	 xmm0, DWORD PTR rot_speed$[rsp]
  00120	48 8b 44 24 30	 mov	 rax, QWORD PTR entity$[rsp]
  00125	f3 0f 11 40 20	 movss	 DWORD PTR [rax+32], xmm0
$LN7@process_in:
$LN5@process_in:

; 88   :     }
; 89   :     if(glfwGetKey(window, GLFW_KEY_RIGHT) == GLFW_PRESS) {

  0012a	ba 06 01 00 00	 mov	 edx, 262		; 00000106H
  0012f	48 8b 4c 24 50	 mov	 rcx, QWORD PTR window$[rsp]
  00134	e8 00 00 00 00	 call	 glfwGetKey
  00139	83 f8 01	 cmp	 eax, 1
  0013c	75 4a		 jne	 SHORT $LN8@process_in

; 90   :         if(glfwGetKey(window, GLFW_KEY_LEFT_ALT) == GLFW_PRESS)

  0013e	ba 56 01 00 00	 mov	 edx, 342		; 00000156H
  00143	48 8b 4c 24 50	 mov	 rcx, QWORD PTR window$[rsp]
  00148	e8 00 00 00 00	 call	 glfwGetKey
  0014d	83 f8 01	 cmp	 eax, 1
  00150	75 1c		 jne	 SHORT $LN9@process_in

; 91   :             entity->rot.Z -= rot_speed;

  00152	48 8b 44 24 30	 mov	 rax, QWORD PTR entity$[rsp]
  00157	f3 0f 10 40 24	 movss	 xmm0, DWORD PTR [rax+36]
  0015c	f3 0f 5c 44 24
	24		 subss	 xmm0, DWORD PTR rot_speed$[rsp]
  00162	48 8b 44 24 30	 mov	 rax, QWORD PTR entity$[rsp]
  00167	f3 0f 11 40 24	 movss	 DWORD PTR [rax+36], xmm0
  0016c	eb 1a		 jmp	 SHORT $LN10@process_in
$LN9@process_in:

; 92   :         else
; 93   :             entity->rot.Y -= rot_speed;

  0016e	48 8b 44 24 30	 mov	 rax, QWORD PTR entity$[rsp]
  00173	f3 0f 10 40 20	 movss	 xmm0, DWORD PTR [rax+32]
  00178	f3 0f 5c 44 24
	24		 subss	 xmm0, DWORD PTR rot_speed$[rsp]
  0017e	48 8b 44 24 30	 mov	 rax, QWORD PTR entity$[rsp]
  00183	f3 0f 11 40 20	 movss	 DWORD PTR [rax+32], xmm0
$LN10@process_in:
$LN8@process_in:

; 94   :     }
; 95   :     
; 96   :     if(glfwGetKey(window, GLFW_KEY_W) == GLFW_PRESS)

  00188	ba 57 00 00 00	 mov	 edx, 87			; 00000057H
  0018d	48 8b 4c 24 50	 mov	 rcx, QWORD PTR window$[rsp]
  00192	e8 00 00 00 00	 call	 glfwGetKey
  00197	83 f8 01	 cmp	 eax, 1
  0019a	75 1a		 jne	 SHORT $LN11@process_in

; 97   :         entity->pos.Z += mov_speed;

  0019c	48 8b 44 24 30	 mov	 rax, QWORD PTR entity$[rsp]
  001a1	f3 0f 10 40 18	 movss	 xmm0, DWORD PTR [rax+24]
  001a6	f3 0f 58 44 24
	20		 addss	 xmm0, DWORD PTR mov_speed$[rsp]
  001ac	48 8b 44 24 30	 mov	 rax, QWORD PTR entity$[rsp]
  001b1	f3 0f 11 40 18	 movss	 DWORD PTR [rax+24], xmm0
$LN11@process_in:

; 98   :     if(glfwGetKey(window, GLFW_KEY_S) == GLFW_PRESS)

  001b6	ba 53 00 00 00	 mov	 edx, 83			; 00000053H
  001bb	48 8b 4c 24 50	 mov	 rcx, QWORD PTR window$[rsp]
  001c0	e8 00 00 00 00	 call	 glfwGetKey
  001c5	83 f8 01	 cmp	 eax, 1
  001c8	75 1a		 jne	 SHORT $LN12@process_in

; 99   :         entity->pos.Z -= mov_speed;

  001ca	48 8b 44 24 30	 mov	 rax, QWORD PTR entity$[rsp]
  001cf	f3 0f 10 40 18	 movss	 xmm0, DWORD PTR [rax+24]
  001d4	f3 0f 5c 44 24
	20		 subss	 xmm0, DWORD PTR mov_speed$[rsp]
  001da	48 8b 44 24 30	 mov	 rax, QWORD PTR entity$[rsp]
  001df	f3 0f 11 40 18	 movss	 DWORD PTR [rax+24], xmm0
$LN12@process_in:

; 100  :     if(glfwGetKey(window, GLFW_KEY_A) == GLFW_PRESS)

  001e4	ba 41 00 00 00	 mov	 edx, 65			; 00000041H
  001e9	48 8b 4c 24 50	 mov	 rcx, QWORD PTR window$[rsp]
  001ee	e8 00 00 00 00	 call	 glfwGetKey
  001f3	83 f8 01	 cmp	 eax, 1
  001f6	75 1a		 jne	 SHORT $LN13@process_in

; 101  :         entity->pos.X += mov_speed;

  001f8	48 8b 44 24 30	 mov	 rax, QWORD PTR entity$[rsp]
  001fd	f3 0f 10 40 10	 movss	 xmm0, DWORD PTR [rax+16]
  00202	f3 0f 58 44 24
	20		 addss	 xmm0, DWORD PTR mov_speed$[rsp]
  00208	48 8b 44 24 30	 mov	 rax, QWORD PTR entity$[rsp]
  0020d	f3 0f 11 40 10	 movss	 DWORD PTR [rax+16], xmm0
$LN13@process_in:

; 102  :     if(glfwGetKey(window, GLFW_KEY_D) == GLFW_PRESS)

  00212	ba 44 00 00 00	 mov	 edx, 68			; 00000044H
  00217	48 8b 4c 24 50	 mov	 rcx, QWORD PTR window$[rsp]
  0021c	e8 00 00 00 00	 call	 glfwGetKey
  00221	83 f8 01	 cmp	 eax, 1
  00224	75 1a		 jne	 SHORT $LN14@process_in

; 103  :         entity->pos.X -= mov_speed;

  00226	48 8b 44 24 30	 mov	 rax, QWORD PTR entity$[rsp]
  0022b	f3 0f 10 40 10	 movss	 xmm0, DWORD PTR [rax+16]
  00230	f3 0f 5c 44 24
	20		 subss	 xmm0, DWORD PTR mov_speed$[rsp]
  00236	48 8b 44 24 30	 mov	 rax, QWORD PTR entity$[rsp]
  0023b	f3 0f 11 40 10	 movss	 DWORD PTR [rax+16], xmm0
$LN14@process_in:

; 104  :     if(glfwGetKey(window, GLFW_KEY_SPACE) == GLFW_PRESS)

  00240	ba 20 00 00 00	 mov	 edx, 32			; 00000020H
  00245	48 8b 4c 24 50	 mov	 rcx, QWORD PTR window$[rsp]
  0024a	e8 00 00 00 00	 call	 glfwGetKey
  0024f	83 f8 01	 cmp	 eax, 1
  00252	75 1a		 jne	 SHORT $LN15@process_in

; 105  :         entity->pos.Y += mov_speed;

  00254	48 8b 44 24 30	 mov	 rax, QWORD PTR entity$[rsp]
  00259	f3 0f 10 40 14	 movss	 xmm0, DWORD PTR [rax+20]
  0025e	f3 0f 58 44 24
	20		 addss	 xmm0, DWORD PTR mov_speed$[rsp]
  00264	48 8b 44 24 30	 mov	 rax, QWORD PTR entity$[rsp]
  00269	f3 0f 11 40 14	 movss	 DWORD PTR [rax+20], xmm0
$LN15@process_in:

; 106  :     if(glfwGetKey(window, GLFW_KEY_LEFT_CONTROL) == GLFW_PRESS)

  0026e	ba 55 01 00 00	 mov	 edx, 341		; 00000155H
  00273	48 8b 4c 24 50	 mov	 rcx, QWORD PTR window$[rsp]
  00278	e8 00 00 00 00	 call	 glfwGetKey
  0027d	83 f8 01	 cmp	 eax, 1
  00280	75 1a		 jne	 SHORT $LN16@process_in

; 107  :         entity->pos.Y -= mov_speed;

  00282	48 8b 44 24 30	 mov	 rax, QWORD PTR entity$[rsp]
  00287	f3 0f 10 40 14	 movss	 xmm0, DWORD PTR [rax+20]
  0028c	f3 0f 5c 44 24
	20		 subss	 xmm0, DWORD PTR mov_speed$[rsp]
